
integrated_sw.elf:     file format elf32-littlenios2
integrated_sw.elf
architecture: nios2, flags 0x00000112:
EXEC_P, HAS_SYMS, D_PAGED
start address 0x030801b8

Program Header:
    LOAD off    0x00001000 vaddr 0x02000000 paddr 0x02000000 align 2**12
         filesz 0x00062df4 memsz 0x0006315c flags rw-
    LOAD off    0x00064000 vaddr 0x02c00000 paddr 0x02c00000 align 2**12
         filesz 0x00000000 memsz 0x00000000 flags r-x
    LOAD off    0x00064020 vaddr 0x03080020 paddr 0x03080020 align 2**12
         filesz 0x0001c5dc memsz 0x0001c5dc flags r-x

Sections:
Idx Name          Size      VMA       LMA       File off  Algn
  0 .entry        00000000  02c00000  02c00000  00064000  2**5
                  CONTENTS, ALLOC, LOAD, READONLY, CODE
  1 .exceptions   00000198  03080020  03080020  00064020  2**2
                  CONTENTS, ALLOC, LOAD, READONLY, CODE
  2 .text         0001c444  030801b8  030801b8  000641b8  2**2
                  CONTENTS, ALLOC, LOAD, READONLY, CODE
  3 .rodata       0005f51c  02000000  02000000  00001000  2**2
                  CONTENTS, ALLOC, LOAD, READONLY, DATA
  4 .rwdata       000038d8  0205f51c  0205f51c  0006051c  2**2
                  CONTENTS, ALLOC, LOAD, DATA, SMALL_DATA
  5 .bss          00000368  02062df4  02062df4  00063df4  2**2
                  ALLOC, SMALL_DATA
  6 .comment      00000026  00000000  00000000  000805fc  2**0
                  CONTENTS, READONLY
  7 .debug_aranges 00001210  00000000  00000000  00080628  2**3
                  CONTENTS, READONLY, DEBUGGING
  8 .debug_pubnames 00002888  00000000  00000000  00081838  2**0
                  CONTENTS, READONLY, DEBUGGING
  9 .debug_info   0003c357  00000000  00000000  000840c0  2**0
                  CONTENTS, READONLY, DEBUGGING
 10 .debug_abbrev 0000bc64  00000000  00000000  000c0417  2**0
                  CONTENTS, READONLY, DEBUGGING
 11 .debug_line   00020bfb  00000000  00000000  000cc07b  2**0
                  CONTENTS, READONLY, DEBUGGING
 12 .debug_frame  000033a4  00000000  00000000  000ecc78  2**2
                  CONTENTS, READONLY, DEBUGGING
 13 .debug_str    0000317d  00000000  00000000  000f001c  2**0
                  CONTENTS, READONLY, DEBUGGING
 14 .debug_loc    0000f710  00000000  00000000  000f3199  2**0
                  CONTENTS, READONLY, DEBUGGING
 15 .debug_alt_sim_info 00000050  00000000  00000000  001028ac  2**2
                  CONTENTS, READONLY, DEBUGGING
 16 .debug_ranges 00000ac0  00000000  00000000  00102900  2**3
                  CONTENTS, READONLY, DEBUGGING
 17 .thread_model 00000003  00000000  00000000  00109fbc  2**0
                  CONTENTS, READONLY
 18 .cpu          00000003  00000000  00000000  00109fbf  2**0
                  CONTENTS, READONLY
 19 .qsys         00000001  00000000  00000000  00109fc2  2**0
                  CONTENTS, READONLY
 20 .simulation_enabled 00000001  00000000  00000000  00109fc3  2**0
                  CONTENTS, READONLY
 21 .sysid_hash   00000004  00000000  00000000  00109fc4  2**0
                  CONTENTS, READONLY
 22 .sysid_base   00000004  00000000  00000000  00109fc8  2**0
                  CONTENTS, READONLY
 23 .sysid_time   00000004  00000000  00000000  00109fcc  2**0
                  CONTENTS, READONLY
 24 .stderr_dev   00000009  00000000  00000000  00109fd0  2**0
                  CONTENTS, READONLY
 25 .stdin_dev    00000009  00000000  00000000  00109fd9  2**0
                  CONTENTS, READONLY
 26 .stdout_dev   00000009  00000000  00000000  00109fe2  2**0
                  CONTENTS, READONLY
 27 .sopc_system_name 00000008  00000000  00000000  00109feb  2**0
                  CONTENTS, READONLY
 28 .quartus_project_dir 0000000e  00000000  00000000  00109ff3  2**0
                  CONTENTS, READONLY
 29 .jdi          00005f21  00000000  00000000  0010a001  2**0
                  CONTENTS, READONLY
 30 .sopcinfo     000bdd4d  00000000  00000000  0010ff22  2**0
                  CONTENTS, READONLY
SYMBOL TABLE:
02c00000 l    d  .entry	00000000 .entry
03080020 l    d  .exceptions	00000000 .exceptions
030801b8 l    d  .text	00000000 .text
02000000 l    d  .rodata	00000000 .rodata
0205f51c l    d  .rwdata	00000000 .rwdata
02062df4 l    d  .bss	00000000 .bss
00000000 l    d  .comment	00000000 .comment
00000000 l    d  .debug_aranges	00000000 .debug_aranges
00000000 l    d  .debug_pubnames	00000000 .debug_pubnames
00000000 l    d  .debug_info	00000000 .debug_info
00000000 l    d  .debug_abbrev	00000000 .debug_abbrev
00000000 l    d  .debug_line	00000000 .debug_line
00000000 l    d  .debug_frame	00000000 .debug_frame
00000000 l    d  .debug_str	00000000 .debug_str
00000000 l    d  .debug_loc	00000000 .debug_loc
00000000 l    d  .debug_alt_sim_info	00000000 .debug_alt_sim_info
00000000 l    d  .debug_ranges	00000000 .debug_ranges
030801fc l       .text	00000000 alt_after_alt_main
00000000 l    df *ABS*	00000000 alt_irq_handler.c
00000000 l    df *ABS*	00000000 I2C.c
00000000 l    df *ABS*	00000000 LCD.c
02062df4 l     O .bss	00000004 fp
00000000 l    df *ABS*	00000000 debug.c
00000000 l    df *ABS*	00000000 flash.c
00000000 l    df *ABS*	00000000 geometry.c
00000000 l    df *ABS*	00000000 gesture.c
00000000 l    df *ABS*	00000000 gui.c
02044e20 l     O .rodata	0000000c res_opts.3947
00000000 l    df *ABS*	00000000 gui_vpg.c
00000000 l    df *ABS*	00000000 main.c
00000000 l    df *ABS*	00000000 multi_touch.c
030846ac l     F .text	000001e4 mtc_QueryData
03084890 l     F .text	00000154 mtc_ISR
00000000 l    df *ABS*	00000000 plotter.c
00000000 l    df *ABS*	00000000 queue.c
00000000 l    df *ABS*	00000000 sensor.c
00000000 l    df *ABS*	00000000 simple_graphics.c
00000000 l    df *ABS*	00000000 simple_text.c
00000000 l    df *ABS*	00000000 tahomabold_20.c
020451f8 l     O .rodata	000000b6 tahomabold_20_33
020452ae l     O .rodata	00000104 tahomabold_20_34
020453b2 l     O .rodata	000001a0 tahomabold_20_35
02045552 l     O .rodata	00000152 tahomabold_20_36
020456a4 l     O .rodata	00000270 tahomabold_20_37
02045914 l     O .rodata	000001ba tahomabold_20_38
02045ace l     O .rodata	0000009c tahomabold_20_39
02045b6a l     O .rodata	000000ea tahomabold_20_40
02045c54 l     O .rodata	000000ea tahomabold_20_41
02045d3e l     O .rodata	00000152 tahomabold_20_42
02045e90 l     O .rodata	000001a0 tahomabold_20_43
02046030 l     O .rodata	0000009c tahomabold_20_44
020460cc l     O .rodata	000000ea tahomabold_20_45
020461b6 l     O .rodata	0000009c tahomabold_20_46
02046252 l     O .rodata	00000138 tahomabold_20_47
0204638a l     O .rodata	00000152 tahomabold_20_48
020464dc l     O .rodata	00000152 tahomabold_20_49
0204662e l     O .rodata	00000152 tahomabold_20_50
02046780 l     O .rodata	00000152 tahomabold_20_51
020468d2 l     O .rodata	00000152 tahomabold_20_52
02046a24 l     O .rodata	00000152 tahomabold_20_53
02046b76 l     O .rodata	00000152 tahomabold_20_54
02046cc8 l     O .rodata	00000152 tahomabold_20_55
02046e1a l     O .rodata	00000152 tahomabold_20_56
02046f6c l     O .rodata	00000152 tahomabold_20_57
020470be l     O .rodata	000000b6 tahomabold_20_58
02047174 l     O .rodata	000000b6 tahomabold_20_59
0204722a l     O .rodata	000001a0 tahomabold_20_60
020473ca l     O .rodata	000001a0 tahomabold_20_61
0204756a l     O .rodata	000001a0 tahomabold_20_62
0204770a l     O .rodata	0000011e tahomabold_20_63
02047828 l     O .rodata	000001d4 tahomabold_20_64
020479fc l     O .rodata	0000016c tahomabold_20_65
02047b68 l     O .rodata	0000016c tahomabold_20_66
02047cd4 l     O .rodata	00000152 tahomabold_20_67
02047e26 l     O .rodata	00000186 tahomabold_20_68
02047fac l     O .rodata	00000138 tahomabold_20_69
020480e4 l     O .rodata	00000138 tahomabold_20_70
0204821c l     O .rodata	00000186 tahomabold_20_71
020483a2 l     O .rodata	00000186 tahomabold_20_72
02048528 l     O .rodata	00000104 tahomabold_20_73
0204862c l     O .rodata	00000104 tahomabold_20_74
02048730 l     O .rodata	0000016c tahomabold_20_75
0204889c l     O .rodata	0000011e tahomabold_20_76
020489ba l     O .rodata	000001d4 tahomabold_20_77
02048b8e l     O .rodata	00000186 tahomabold_20_78
02048d14 l     O .rodata	00000186 tahomabold_20_79
02048e9a l     O .rodata	00000152 tahomabold_20_80
02048fec l     O .rodata	00000186 tahomabold_20_81
02049172 l     O .rodata	00000186 tahomabold_20_82
020492f8 l     O .rodata	00000152 tahomabold_20_83
0204944a l     O .rodata	00000138 tahomabold_20_84
02049582 l     O .rodata	00000186 tahomabold_20_85
02049708 l     O .rodata	0000016c tahomabold_20_86
02049874 l     O .rodata	00000222 tahomabold_20_87
02049a96 l     O .rodata	0000016c tahomabold_20_88
02049c02 l     O .rodata	0000016c tahomabold_20_89
02049d6e l     O .rodata	00000138 tahomabold_20_90
02049ea6 l     O .rodata	000000ea tahomabold_20_91
02049f90 l     O .rodata	00000138 tahomabold_20_92
0204a0c8 l     O .rodata	000000ea tahomabold_20_93
0204a1b2 l     O .rodata	000001a0 tahomabold_20_94
0204a352 l     O .rodata	00000152 tahomabold_20_95
0204a4a4 l     O .rodata	0000011e tahomabold_20_96
0204a5c2 l     O .rodata	00000138 tahomabold_20_97
0204a6fa l     O .rodata	00000152 tahomabold_20_98
0204a84c l     O .rodata	0000011e tahomabold_20_99
0204a96a l     O .rodata	00000152 tahomabold_20_100
0204aabc l     O .rodata	00000138 tahomabold_20_101
0204abf4 l     O .rodata	000000d0 tahomabold_20_102
0204acc4 l     O .rodata	00000152 tahomabold_20_103
0204ae16 l     O .rodata	00000152 tahomabold_20_104
0204af68 l     O .rodata	0000009c tahomabold_20_105
0204b004 l     O .rodata	000000ea tahomabold_20_106
0204b0ee l     O .rodata	00000138 tahomabold_20_107
0204b226 l     O .rodata	0000009c tahomabold_20_108
0204b2c2 l     O .rodata	000001ee tahomabold_20_109
0204b4b0 l     O .rodata	00000152 tahomabold_20_110
0204b602 l     O .rodata	00000138 tahomabold_20_111
0204b73a l     O .rodata	00000152 tahomabold_20_112
0204b88c l     O .rodata	00000152 tahomabold_20_113
0204b9de l     O .rodata	000000ea tahomabold_20_114
0204bac8 l     O .rodata	00000104 tahomabold_20_115
0204bbcc l     O .rodata	000000d0 tahomabold_20_116
0204bc9c l     O .rodata	00000152 tahomabold_20_117
0204bdee l     O .rodata	00000138 tahomabold_20_118
0204bf26 l     O .rodata	000001d4 tahomabold_20_119
0204c0fa l     O .rodata	00000138 tahomabold_20_120
0204c232 l     O .rodata	00000138 tahomabold_20_121
0204c36a l     O .rodata	0000011e tahomabold_20_122
0204c488 l     O .rodata	00000138 tahomabold_20_123
0204c5c0 l     O .rodata	00000152 tahomabold_20_124
0204c712 l     O .rodata	00000138 tahomabold_20_125
0204c84a l     O .rodata	000001a0 tahomabold_20_126
00000000 l    df *ABS*	00000000 tahomabold_32.c
0204c9ea l     O .rodata	000001b8 tahomabold_32_33
0204cba2 l     O .rodata	00000280 tahomabold_32_34
0204ce22 l     O .rodata	00000410 tahomabold_32_35
0204d232 l     O .rodata	00000320 tahomabold_32_36
0204d552 l     O .rodata	000005f0 tahomabold_32_37
0204db42 l     O .rodata	00000410 tahomabold_32_38
0204df52 l     O .rodata	00000168 tahomabold_32_39
0204e0ba l     O .rodata	00000258 tahomabold_32_40
0204e312 l     O .rodata	00000258 tahomabold_32_41
0204e56a l     O .rodata	00000320 tahomabold_32_42
0204e88a l     O .rodata	00000410 tahomabold_32_43
0204ec9a l     O .rodata	00000190 tahomabold_32_44
0204ee2a l     O .rodata	00000230 tahomabold_32_45
0204f05a l     O .rodata	00000190 tahomabold_32_46
0204f1ea l     O .rodata	000002d0 tahomabold_32_47
0204f4ba l     O .rodata	00000320 tahomabold_32_48
0204f7da l     O .rodata	00000320 tahomabold_32_49
0204fafa l     O .rodata	00000320 tahomabold_32_50
0204fe1a l     O .rodata	00000320 tahomabold_32_51
0205013a l     O .rodata	00000320 tahomabold_32_52
0205045a l     O .rodata	00000320 tahomabold_32_53
0205077a l     O .rodata	00000320 tahomabold_32_54
02050a9a l     O .rodata	00000320 tahomabold_32_55
02050dba l     O .rodata	00000320 tahomabold_32_56
020510da l     O .rodata	00000320 tahomabold_32_57
020513fa l     O .rodata	000001e0 tahomabold_32_58
020515da l     O .rodata	000001e0 tahomabold_32_59
020517ba l     O .rodata	00000410 tahomabold_32_60
02051bca l     O .rodata	00000410 tahomabold_32_61
02051fda l     O .rodata	00000410 tahomabold_32_62
020523ea l     O .rodata	000002d0 tahomabold_32_63
020526ba l     O .rodata	00000488 tahomabold_32_64
02052b42 l     O .rodata	00000370 tahomabold_32_65
02052eb2 l     O .rodata	00000370 tahomabold_32_66
02053222 l     O .rodata	00000348 tahomabold_32_67
0205356a l     O .rodata	000003c0 tahomabold_32_68
0205392a l     O .rodata	00000320 tahomabold_32_69
02053c4a l     O .rodata	000002f8 tahomabold_32_70
02053f42 l     O .rodata	000003c0 tahomabold_32_71
02054302 l     O .rodata	000003c0 tahomabold_32_72
020546c2 l     O .rodata	00000258 tahomabold_32_73
0205491a l     O .rodata	00000280 tahomabold_32_74
02054b9a l     O .rodata	00000398 tahomabold_32_75
02054f32 l     O .rodata	000002d0 tahomabold_32_76
02055202 l     O .rodata	00000488 tahomabold_32_77
0205568a l     O .rodata	000003e8 tahomabold_32_78
02055a72 l     O .rodata	000003e8 tahomabold_32_79
02055e5a l     O .rodata	00000348 tahomabold_32_80
020561a2 l     O .rodata	000003e8 tahomabold_32_81
0205658a l     O .rodata	000003c0 tahomabold_32_82
0205694a l     O .rodata	00000320 tahomabold_32_83
02056c6a l     O .rodata	00000320 tahomabold_32_84
02056f8a l     O .rodata	000003c0 tahomabold_32_85
0205734a l     O .rodata	00000370 tahomabold_32_86
020576ba l     O .rodata	00000528 tahomabold_32_87
02057be2 l     O .rodata	00000370 tahomabold_32_88
02057f52 l     O .rodata	00000370 tahomabold_32_89
020582c2 l     O .rodata	00000320 tahomabold_32_90
020585e2 l     O .rodata	00000258 tahomabold_32_91
0205883a l     O .rodata	000002d0 tahomabold_32_92
02058b0a l     O .rodata	00000258 tahomabold_32_93
02058d62 l     O .rodata	00000410 tahomabold_32_94
02059172 l     O .rodata	00000320 tahomabold_32_95
02059492 l     O .rodata	000002a8 tahomabold_32_96
0205973a l     O .rodata	000002f8 tahomabold_32_97
02059a32 l     O .rodata	00000320 tahomabold_32_98
02059d52 l     O .rodata	000002a8 tahomabold_32_99
02059ffa l     O .rodata	00000320 tahomabold_32_100
0205a31a l     O .rodata	000002f8 tahomabold_32_101
0205a612 l     O .rodata	00000230 tahomabold_32_102
0205a842 l     O .rodata	00000320 tahomabold_32_103
0205ab62 l     O .rodata	00000320 tahomabold_32_104
0205ae82 l     O .rodata	00000190 tahomabold_32_105
0205b012 l     O .rodata	00000208 tahomabold_32_106
0205b21a l     O .rodata	000002f8 tahomabold_32_107
0205b512 l     O .rodata	00000190 tahomabold_32_108
0205b6a2 l     O .rodata	000004d8 tahomabold_32_109
0205bb7a l     O .rodata	00000320 tahomabold_32_110
0205be9a l     O .rodata	00000320 tahomabold_32_111
0205c1ba l     O .rodata	00000320 tahomabold_32_112
0205c4da l     O .rodata	00000320 tahomabold_32_113
0205c7fa l     O .rodata	00000230 tahomabold_32_114
0205ca2a l     O .rodata	00000280 tahomabold_32_115
0205ccaa l     O .rodata	00000208 tahomabold_32_116
0205ceb2 l     O .rodata	00000320 tahomabold_32_117
0205d1d2 l     O .rodata	000002f8 tahomabold_32_118
0205d4ca l     O .rodata	00000460 tahomabold_32_119
0205d92a l     O .rodata	000002f8 tahomabold_32_120
0205dc22 l     O .rodata	000002d0 tahomabold_32_121
0205def2 l     O .rodata	000002a8 tahomabold_32_122
0205e19a l     O .rodata	00000320 tahomabold_32_123
0205e4ba l     O .rodata	00000320 tahomabold_32_124
0205e7da l     O .rodata	00000320 tahomabold_32_125
0205eafa l     O .rodata	00000410 tahomabold_32_126
00000000 l    df *ABS*	00000000 vip_fr.c
00000000 l    df *ABS*	00000000 w_sqrt.c
00000000 l    df *ABS*	00000000 e_sqrt.c
00000000 l    df *ABS*	00000000 s_isnand.c
00000000 l    df *ABS*	00000000 s_lib_ver.c
00000000 l    df *ABS*	00000000 s_matherr.c
00000000 l    df *ABS*	00000000 fp-bit.c
00000000 l    df *ABS*	00000000 fp-bit.c
00000000 l    df *ABS*	00000000 fp-bit.c
00000000 l    df *ABS*	00000000 fp-bit.c
00000000 l    df *ABS*	00000000 fp-bit.c
00000000 l    df *ABS*	00000000 dp-bit.c
0308aa74 l     F .text	00000410 _fpadd_parts
00000000 l    df *ABS*	00000000 dp-bit.c
00000000 l    df *ABS*	00000000 dp-bit.c
00000000 l    df *ABS*	00000000 dp-bit.c
00000000 l    df *ABS*	00000000 dp-bit.c
00000000 l    df *ABS*	00000000 dp-bit.c
00000000 l    df *ABS*	00000000 dp-bit.c
00000000 l    df *ABS*	00000000 lib2-divmod.c
0308b7ec l     F .text	0000007c udivmodsi4
00000000 l    df *ABS*	00000000 libgcc2.c
00000000 l    df *ABS*	00000000 libgcc2.c
00000000 l    df *ABS*	00000000 fp-bit.c
00000000 l    df *ABS*	00000000 fp-bit.c
00000000 l    df *ABS*	00000000 dp-bit.c
00000000 l    df *ABS*	00000000 dp-bit.c
00000000 l    df *ABS*	00000000 dp-bit.c
00000000 l    df *ABS*	00000000 libgcc2.c
00000000 l    df *ABS*	00000000 errno.c
00000000 l    df *ABS*	00000000 fclose.c
00000000 l    df *ABS*	00000000 fflush.c
00000000 l    df *ABS*	00000000 findfp.c
0308c4f0 l     F .text	00000058 std
0308c5fc l     F .text	00000008 __fp_lock
0308c604 l     F .text	00000008 __fp_unlock
00000000 l    df *ABS*	00000000 fopen.c
00000000 l    df *ABS*	00000000 mallocr.c
00000000 l    df *ABS*	00000000 fseek.c
00000000 l    df *ABS*	00000000 fstatr.c
00000000 l    df *ABS*	00000000 fwalk.c
00000000 l    df *ABS*	00000000 fwrite.c
00000000 l    df *ABS*	00000000 impure.c
020610b4 l     O .rwdata	00000400 impure_data
00000000 l    df *ABS*	00000000 int_errno.c
00000000 l    df *ABS*	00000000 makebuf.c
00000000 l    df *ABS*	00000000 malloc.c
00000000 l    df *ABS*	00000000 mallocr.c
00000000 l    df *ABS*	00000000 memcpy.c
00000000 l    df *ABS*	00000000 memset.c
00000000 l    df *ABS*	00000000 openr.c
00000000 l    df *ABS*	00000000 printf.c
00000000 l    df *ABS*	00000000 putchar.c
00000000 l    df *ABS*	00000000 puts.c
00000000 l    df *ABS*	00000000 refill.c
0308e1f0 l     F .text	0000001c lflush
00000000 l    df *ABS*	00000000 sbrkr.c
00000000 l    df *ABS*	00000000 sprintf.c
00000000 l    df *ABS*	00000000 stdio.c
00000000 l    df *ABS*	00000000 strcpy.c
00000000 l    df *ABS*	00000000 strlen.c
00000000 l    df *ABS*	00000000 vfprintf.c
0308e59c l     F .text	00000058 __sprint_r
0205f0ae l     O .rodata	00000010 blanks.3452
0205f09e l     O .rodata	00000010 zeroes.3453
00000000 l    df *ABS*	00000000 vsnprintf.c
00000000 l    df *ABS*	00000000 writer.c
00000000 l    df *ABS*	00000000 wsetup.c
00000000 l    df *ABS*	00000000 closer.c
00000000 l    df *ABS*	00000000 dtoa.c
030907dc l     F .text	00000218 quorem
00000000 l    df *ABS*	00000000 flags.c
00000000 l    df *ABS*	00000000 fvwrite.c
00000000 l    df *ABS*	00000000 isattyr.c
00000000 l    df *ABS*	00000000 locale.c
02062db8 l     O .rwdata	00000004 charset
0205f0e0 l     O .rodata	00000030 lconv
00000000 l    df *ABS*	00000000 lseekr.c
00000000 l    df *ABS*	00000000 memchr.c
00000000 l    df *ABS*	00000000 memmove.c
00000000 l    df *ABS*	00000000 mprec.c
0205f228 l     O .rodata	0000000c p05.2458
00000000 l    df *ABS*	00000000 putc.c
00000000 l    df *ABS*	00000000 readr.c
00000000 l    df *ABS*	00000000 mallocr.c
00000000 l    df *ABS*	00000000 s_isinfd.c
00000000 l    df *ABS*	00000000 strcmp.c
00000000 l    df *ABS*	00000000 wbuf.c
00000000 l    df *ABS*	00000000 mallocr.c
00000000 l    df *ABS*	00000000 libgcc2.c
00000000 l    df *ABS*	00000000 libgcc2.c
00000000 l    df *ABS*	00000000 dp-bit.c
00000000 l    df *ABS*	00000000 dp-bit.c
00000000 l    df *ABS*	00000000 dp-bit.c
00000000 l    df *ABS*	00000000 dp-bit.c
00000000 l    df *ABS*	00000000 dp-bit.c
00000000 l    df *ABS*	00000000 alt_close.c
030953d8 l     F .text	00000060 alt_get_errno
00000000 l    df *ABS*	00000000 alt_dcache_flush.c
00000000 l    df *ABS*	00000000 alt_dcache_flush_all.c
00000000 l    df *ABS*	00000000 alt_dev.c
030954f4 l     F .text	0000002c alt_dev_null_write
00000000 l    df *ABS*	00000000 alt_errno.c
00000000 l    df *ABS*	00000000 alt_flash_dev.c
00000000 l    df *ABS*	00000000 alt_fstat.c
030956c4 l     F .text	00000060 alt_get_errno
00000000 l    df *ABS*	00000000 alt_irq_register.c
00000000 l    df *ABS*	00000000 alt_irq_vars.c
00000000 l    df *ABS*	00000000 alt_isatty.c
030959a4 l     F .text	00000060 alt_get_errno
00000000 l    df *ABS*	00000000 alt_lseek.c
03095af4 l     F .text	00000060 alt_get_errno
00000000 l    df *ABS*	00000000 alt_main.c
00000000 l    df *ABS*	00000000 alt_malloc_lock.c
00000000 l    df *ABS*	00000000 alt_open.c
03095c00 l     F .text	000000dc alt_file_locked
03095e64 l     F .text	00000060 alt_get_errno
00000000 l    df *ABS*	00000000 alt_read.c
03095fe4 l     F .text	00000060 alt_get_errno
00000000 l    df *ABS*	00000000 alt_release_fd.c
00000000 l    df *ABS*	00000000 alt_sbrk.c
02062de0 l     O .rwdata	00000004 heap_end
00000000 l    df *ABS*	00000000 alt_tick.c
00000000 l    df *ABS*	00000000 alt_usleep.c
00000000 l    df *ABS*	00000000 alt_write.c
03096454 l     F .text	00000060 alt_get_errno
00000000 l    df *ABS*	00000000 alt_sys_init.c
02061a70 l     O .rwdata	000000d8 cfi_flash
02061b48 l     O .rwdata	000000c8 epcs_flash_controller
02061c10 l     O .rwdata	00001060 jtag_uart
02062c70 l     O .rwdata	00000120 lcd
03096570 l     F .text	00000038 alt_dev_reg
00000000 l    df *ABS*	00000000 altera_avalon_cfi_flash.c
03096644 l     F .text	00000038 alt_flash_device_register
00000000 l    df *ABS*	00000000 altera_avalon_cfi_flash_table.c
03097434 l     F .text	0000007c alt_read_16bit_query_entry
00000000 l    df *ABS*	00000000 altera_avalon_epcs_flash_controller.c
030983a4 l     F .text	00000288 alt_epcs_flash_query
0309836c l     F .text	00000038 alt_flash_device_register
0309862c l     F .text	00000108 alt_epcs_flash_memcmp
03098ab4 l     F .text	00000094 alt_epcs_test_address
00000000 l    df *ABS*	00000000 altera_avalon_jtag_uart_fd.c
00000000 l    df *ABS*	00000000 altera_avalon_jtag_uart_init.c
03098efc l     F .text	0000022c altera_avalon_jtag_uart_irq
03099128 l     F .text	000000b0 altera_avalon_jtag_uart_timeout
00000000 l    df *ABS*	00000000 altera_avalon_jtag_uart_ioctl.c
00000000 l    df *ABS*	00000000 altera_avalon_jtag_uart_read.c
00000000 l    df *ABS*	00000000 altera_avalon_jtag_uart_write.c
00000000 l    df *ABS*	00000000 altera_avalon_lcd_16207.c
02062dec l     O .rwdata	00000004 colstart
030997a4 l     F .text	000000b8 lcd_write_command
0309985c l     F .text	000000d4 lcd_write_data
03099930 l     F .text	000000c4 lcd_clear_screen
030999f4 l     F .text	000001ec lcd_repaint_screen
03099be0 l     F .text	000000c8 lcd_scroll_up
03099ca8 l     F .text	000002d0 lcd_handle_escape
0309a484 l     F .text	000000cc alt_lcd_16207_timeout
00000000 l    df *ABS*	00000000 altera_avalon_lcd_16207_fd.c
00000000 l    df *ABS*	00000000 altera_avalon_timer_sc.c
0309a6e4 l     F .text	00000074 alt_avalon_timer_sc_irq
00000000 l    df *ABS*	00000000 epcs_commands.c
0309a938 l     F .text	00000038 epcs_await_wip_released
0309a970 l     F .text	00000038 epcs_test_wip
00000000 l    df *ABS*	00000000 alt_alarm_start.c
00000000 l    df *ABS*	00000000 alt_busy_sleep.c
00000000 l    df *ABS*	00000000 alt_dev_llist_insert.c
0309b208 l     F .text	00000060 alt_get_errno
00000000 l    df *ABS*	00000000 alt_do_ctors.c
00000000 l    df *ABS*	00000000 alt_do_dtors.c
00000000 l    df *ABS*	00000000 alt_find_dev.c
00000000 l    df *ABS*	00000000 alt_find_file.c
00000000 l    df *ABS*	00000000 alt_get_fd.c
00000000 l    df *ABS*	00000000 alt_io_redirect.c
0309b59c l     F .text	000000c4 alt_open_fd
00000000 l    df *ABS*	00000000 altera_nios2_qsys_irq.c
00000000 l    df *ABS*	00000000 altera_avalon_cfi_flash_amd.c
0309ba9c l     F .text	000000bc alt_write_word_amd
0309b978 l     F .text	00000124 alt_wait_for_command_to_complete_amd
00000000 l    df *ABS*	00000000 altera_avalon_cfi_flash_intel.c
0309bd50 l     F .text	0000018c alt_unlock_block_intel
0309bedc l     F .text	000000dc alt_write_word_intel
00000000 l    df *ABS*	00000000 altera_avalon_spi.c
00000000 l    df *ABS*	00000000 atexit.c
00000000 l    df *ABS*	00000000 ctype_.c
0205f399 l     O .rodata	00000180 _ctype_b
00000000 l    df *ABS*	00000000 exit.c
00000000 l    df *ABS*	00000000 memcmp.c
00000000 l    df *ABS*	00000000 __atexit.c
00000000 l    df *ABS*	00000000 __call_atexit.c
0309c3e4 l     F .text	00000004 register_fini
00000000 l    df *ABS*	00000000 alt_exit.c
0309c598 l     F .text	00000040 alt_sim_halt
0308df54 g     F .text	0000001c putchar
0308707c g     F .text	000002d8 vid_draw_horiz_line
03092c60 g     F .text	00000094 _mprec_log10
03080498 g     F .text	00000128 I2C_Read
030989b4 g     F .text	00000090 alt_epcs_flash_get_info
03092d4c g     F .text	00000088 __any_on
030924e4 g     F .text	00000070 _isatty_r
0205f200 g     O .rodata	00000028 __mprec_tinytens
03095b54 g     F .text	0000006c alt_main
0308e49c g     F .text	0000008c strcpy
0308df78 g     F .text	000000a0 _puts_r
03096ef4 g     F .text	00000048 alt_read_query_entry_32bit
02062ecc g     O .bss	00000100 alt_irq
03092618 g     F .text	00000078 _lseek_r
0309667c g     F .text	000002c0 alt_flash_cfi_write
03087440 g     F .text	00000068 vid_color_convert16_24
0308a1c4 g     F .text	00000130 sqrt
030812d8 g     F .text	00000094 I2CL_Read16
03084fb0 g     F .text	00000034 MTC_ClearEvent
03085e1c g     F .text	00000064 toggleClock
03091fa8 g     F .text	000000a0 __sflags
03094f28 g     F .text	00000088 __eqdf2
0206315c g       *ABS*	00000000 __alt_heap_start
03085aa0 g     F .text	00000064 QUEUE_IsFull
0308dedc g     F .text	00000044 printf
03080000 g       *ABS*	00000000 __alt_mem_sram
0308e358 g     F .text	00000068 __sseek
0308c558 g     F .text	000000a4 __sinit
0309419c g     F .text	00000130 __swbuf_r
03092578 g     F .text	00000084 _setlocale_r
0308c658 g     F .text	00000068 __sfmoreglue
020451d4 g     O .rodata	00000020 testTable
03095be0 g     F .text	00000020 __malloc_unlock
030869fc g     F .text	0000013c vid_draw_box
030829d8 g     F .text	00000044 PtCopy
0308a7d4 g     F .text	00000174 __divsf3
03088f68 g     F .text	00000278 vid_print_string_alpha
03092774 g     F .text	000000e0 memmove
0204512c g     O .rodata	00000020 reffVTable
030835c8 g     F .text	00000498 GUI_ShowGesture
0308c648 g     F .text	00000010 _cleanup
03092dd4 g     F .text	000000bc _Balloc
0205f51c g     O .rwdata	00000415 cour10_font_array
0308a9e0 g     F .text	00000094 __fixsfsi
03095038 g     F .text	00000088 __gtdf2
030867cc g     F .text	0000011c vid_move_block
0308c18c g     F .text	00000010 __errno
0309a840 g     F .text	000000f8 epcs_sector_erase
030830f4 g     F .text	0000011c drawStats
03089ae8 g     F .text	000000f4 vid_string_pixel_length_alpha
03081138 g     F .text	000001a0 I2CL_MultipleWrite
03097080 g     F .text	00000048 alt_write_flash_command_32bit_device_16bit_mode
030809bc g     F .text	0000016c i2c_write
02c00000 g     F .entry	00000000 __reset
03084ab4 g     F .text	00000048 MTC_UnInit
03089f30 g     F .text	00000064 DRAW_EraseScreen
03080200 g     F .text	00000040 my_wait
030814c0 g     F .text	00000088 LCD_Clear
0308d160 g     F .text	00000074 _fstat_r
03096b98 g     F .text	000002d8 alt_flash_program_block
02062dfc g     O .bss	00000004 errno
030805c0 g     F .text	0000017c I2C_Read16
03085c60 g     F .text	00000028 initSensorVars
02062e20 g     O .bss	00000004 alt_argv
0206ad90 g       *ABS*	00000000 _gp
03096304 g     F .text	00000030 usleep
03083eb4 g     F .text	0000009c VPG_ColorPanel
03082078 g     F .text	000005b0 FLASH_Verify
030891e0 g     F .text	00000154 seperate_color_channels
0308189c g     F .text	000000d0 Flash_Open
020618f0 g     O .rwdata	00000180 alt_fd_list
0308a0e0 g     F .text	00000038 FrameReader_Go
030819c4 g     F .text	0000013c Flash_GetBlockInfo
0308df70 g     F .text	00000008 _putchar_r
0309ab44 g     F .text	00000064 epcs_write_status_register
0309b330 g     F .text	00000094 alt_find_dev
0308dd2c g     F .text	000000a0 memcpy
0308c63c g     F .text	0000000c _cleanup_r
0308b61c g     F .text	000000f8 __floatsidf
03087f18 g     F .text	00000688 vid_round_corner_points
0309b660 g     F .text	00000078 alt_io_redirect
0308b594 g     F .text	00000088 __ltdf2
0309c5fc g       *ABS*	00000000 __DTOR_END__
03082b0c g     F .text	000001a0 plot
030830a0 g     F .text	00000054 GUI_CheckButton
0308e018 g     F .text	00000014 puts
03086178 g     F .text	00000058 vid_clean_screen
03098b48 g     F .text	0000011c alt_epcs_flash_write_block
03092bb0 g     F .text	000000b0 __ratio
03085a58 g     F .text	00000048 QUEUE_IsEmpty
030862c8 g     F .text	0000014c vid_scroll_string_init
03099340 g     F .text	00000224 altera_avalon_jtag_uart_read
0308d5d8 g     F .text	00000014 malloc
0308df20 g     F .text	00000034 _printf_r
0308b928 g     F .text	00000008 __udivsi3
030958e4 g     F .text	000000c0 isatty
0205f110 g     O .rodata	000000c8 __mprec_tens
03092554 g     F .text	00000008 __locale_charset
03090578 g     F .text	00000040 vsnprintf
03083210 g     F .text	000002fc GUI_DeskDraw
0308073c g     F .text	00000180 I2C_MultipleRead
02062e00 g     O .bss	00000004 __malloc_top_pad
03085c30 g     F .text	00000030 QUEUE_Empty
02062db4 g     O .rwdata	00000004 __mb_cur_max
0309255c g     F .text	0000000c _localeconv_r
030934cc g     F .text	0000003c __i2b
03092048 g     F .text	0000049c __sfvwrite_r
03085b9c g     F .text	00000094 QUEUE_Pop
02062e58 g     O .bss	0000000c a1
0308e20c g     F .text	00000070 _sbrk_r
0309bb58 g     F .text	00000084 alt_program_intel
030828f0 g     F .text	00000034 RectHeight
03089e88 g     F .text	000000a8 VIPFR_ActiveDrawFrame
03089f94 g     F .text	0000008c FrameReader_SetFrame0
03093a34 g     F .text	00000078 _read_r
03095438 g     F .text	00000078 alt_dcache_flush
020618bc g     O .rwdata	0000000c __lc_ctype
02062dcc g     O .rwdata	00000004 alt_max_fd
03096e70 g     F .text	00000040 alt_read_query_entry_8bit
0308bf8c g     F .text	00000138 __unpack_d
03083dfc g     F .text	000000b8 VPG_XLine
0308c19c g     F .text	00000110 _fclose_r
0309bbdc g     F .text	00000174 alt_erase_block_intel
0308c4bc g     F .text	00000034 fflush
02062e04 g     O .bss	00000004 __malloc_max_sbrked_mem
0308145c g     F .text	00000064 LCD_TextOut
03080dd0 g     F .text	00000188 I2CL_Read
03095724 g     F .text	000001c0 alt_irq_register
020604f4 g     O .rwdata	00000bc0 tahomabold_32
0308af04 g     F .text	00000074 __adddf3
03098a44 g     F .text	00000070 alt_epcs_flash_erase_block
030826ac g     F .text	00000040 PtSet
03092a90 g     F .text	00000120 __b2d
03094978 g     F .text	000005b0 __umoddi3
03095a04 g     F .text	000000f0 lseek
02062da0 g     O .rwdata	00000004 __fdlib_version
02062da8 g     O .rwdata	00000004 _global_impure_ptr
030879e0 g     F .text	0000016c vid_draw_circle
0309ae5c g     F .text	00000058 epcs_exit_4_bytes_mode
03093aac g     F .text	000005f4 _realloc_r
0206315c g       *ABS*	00000000 __bss_end
030961f8 g     F .text	0000010c alt_tick
0308033c g     F .text	0000015c I2C_Write16
030827d0 g     F .text	00000088 RectOffset
0309439c g     F .text	000005dc __udivdi3
0205f1d8 g     O .rodata	00000028 __mprec_bigtens
03093728 g     F .text	00000120 __s2b
03087764 g     F .text	0000027c vid_draw_sloped_line
03095148 g     F .text	00000194 __floatunsidf
030929b0 g     F .text	00000060 __mcmp
02062df0 g     O .rwdata	00000004 __ctype_ptr
03084044 g     F .text	000000e0 VPG_VGrid
0308c624 g     F .text	00000018 __fp_lock_all
03080240 g     F .text	000000fc I2C_Write
03085c88 g     F .text	0000008c initializePorts
03087b4c g     F .text	000003cc vid_draw_round_corner_box
03096160 g     F .text	00000098 alt_alarm_stop
03081548 g     F .text	0000003c LCD_Close
02062e18 g     O .bss	00000004 alt_irq_active
030800ec g     F .exceptions	000000cc alt_irq_handler
020618c8 g     O .rwdata	00000028 alt_dev_null
0308136c g     F .text	00000094 I2CL_Write16
0308bbb0 g     F .text	000000c8 __unpack_f
03097388 g     F .text	000000ac alt_set_flash_algorithm_func
030808bc g     F .text	00000088 i2c_start
030954b0 g     F .text	00000044 alt_dcache_flush_all
0309287c g     F .text	00000070 __hi0bits
0308b714 g     F .text	000000d8 __fixdfsi
03096f3c g     F .text	0000003c alt_write_flash_command_8bit_device_8bit_mode
03088a18 g     F .text	00000348 vid_draw_triangle
02062dc4 g     O .rwdata	00000008 alt_dev_list
03096334 g     F .text	00000120 write
0309394c g     F .text	000000e8 _putc_r
03088e3c g     F .text	0000012c CropImage16
030955f0 g     F .text	000000d4 fstat
03086414 g     F .text	000003b8 vid_scroll_string
030815b4 g     F .text	00000060 myprintf
0309823c g     F .text	000000dc alt_check_primary_table
03093608 g     F .text	00000120 __pow5mult
02062e0c g     O .bss	00000004 __nlocale_changed
0308b930 g     F .text	00000008 __umodsi3
030969cc g     F .text	00000068 alt_flash_cfi_read
03097110 g     F .text	00000034 alt_write_native_8bit
030828bc g     F .text	00000034 RectWidth
0309ad18 g     F .text	0000006c epcs_read_electronic_signature
03081b00 g     F .text	000000b8 Flash_Read
03088d60 g     F .text	000000dc CopyImage16
0206315c g       *ABS*	00000000 end
03084378 g     F .text	00000244 GUI_VPG
0308ba50 g     F .text	00000160 __pack_f
03096f78 g     F .text	0000007c alt_write_flash_command_16bit_device_8bit_mode
03099f78 g     F .text	0000050c altera_avalon_lcd_16207_write
03089df4 g     F .text	00000040 VIPFR_Go
0308d13c g     F .text	00000024 fseek
030974b0 g     F .text	000005e0 alt_read_cfi_table
03098e44 g     F .text	000000b8 altera_avalon_jtag_uart_init
03086b38 g     F .text	000000e8 vid_print_char
03085fb8 g     F .text	00000050 iin
0309c5f8 g       *ABS*	00000000 __CTOR_LIST__
02800000 g       *ABS*	00000000 __alt_stack_pointer
0309a758 g     F .text	00000088 alt_avalon_timer_sc_init
0308b9d0 g     F .text	00000080 __clzsi2
03099564 g     F .text	00000240 altera_avalon_jtag_uart_write
030885f4 g     F .text	00000054 min3
030861d0 g     F .text	000000bc vid_draw_line
030965a8 g     F .text	0000009c alt_flash_cfi_init
03089bdc g     F .text	000000cc VIPFR_Init
0308196c g     F .text	00000058 Flash_Close
0308c548 g     F .text	00000004 __sfp_lock_acquire
03092690 g     F .text	000000e4 memchr
0308e5f4 g     F .text	00001eac ___vfprintf_internal_r
0308e2f0 g     F .text	00000060 _sprintf_r
0308c9ec g     F .text	00000314 _free_r
0309c3e8 g     F .text	000001b0 __call_exitprocs
02062e10 g     O .bss	00000004 __mlocale_changed
03083f50 g     F .text	000000f4 VPG_Grid
02062db0 g     O .rwdata	00000004 __malloc_sbrk_base
030801b8 g     F .text	00000048 _start
02062e28 g     O .bss	00000004 _alt_tick_rate
03093198 g     F .text	0000014c __lshift
0309bfb8 g     F .text	00000238 alt_avalon_spi_command
03085b04 g     F .text	00000098 QUEUE_Push
02062e2c g     O .bss	00000004 _alt_nticks
030886ac g     F .text	0000010c vid_put_pixel_in_span_map
03095ec4 g     F .text	00000120 read
03089ca8 g     F .text	0000003c VIPFR_UnInit
03084204 g     F .text	00000174 VPG_ColorBar
030964e8 g     F .text	00000088 alt_sys_init
0308a948 g     F .text	00000098 __floatsisf
0308de64 g     F .text	00000078 _open_r
03082a1c g     F .text	0000009c get_max
0309c2b0 g     F .text	00000134 __register_exitproc
03082ab8 g     F .text	00000054 get_scale_factor
03096eb0 g     F .text	00000044 alt_read_query_entry_16bit
030932e4 g     F .text	000001e8 __multiply
03086e08 g     F .text	00000274 vid_paint_block
03082cac g     F .text	0000002c sliding_plot
030991d8 g     F .text	00000074 altera_avalon_jtag_uart_close
02062e30 g     O .bss	00000028 __malloc_current_mallinfo
03084fe4 g     F .text	000009d4 MTC_QueryEventText
030971a8 g     F .text	000001e0 alt_set_flash_width_func
03092e90 g     F .text	0000017c __d2b
03082cd8 g     F .text	000003c8 draw_options
03084124 g     F .text	000000e0 VPG_HGrid
0309a7e0 g     F .text	00000060 epcs_read_status_register
030873a0 g     F .text	000000a0 vid_color_convert24_16
03098cfc g     F .text	00000058 altera_avalon_jtag_uart_read_fd
0309b4e4 g     F .text	000000b8 alt_get_fd
0309b008 g     F .text	0000014c alt_busy_sleep
0308c0c4 g     F .text	000000c8 __fpcmp_parts_d
0309076c g     F .text	00000070 _close_r
03084bdc g     F .text	000003d4 MTC_ShowEventText
03083ab8 g     F .text	000002e4 GUI
030896a8 g     F .text	00000294 alpha_blending
0309b760 g     F .text	00000218 alt_erase_block_amd
0309ad84 g     F .text	00000080 epcs_read_device_id
0309c23c g     F .text	00000074 memcmp
03098dac g     F .text	00000048 altera_avalon_jtag_uart_close_fd
0206315c g       *ABS*	00000000 __alt_stack_base
03098df4 g     F .text	00000050 altera_avalon_jtag_uart_ioctl_fd
020004e8 g     O .rodata	000448f0 gesture_bmp
0308d354 g     F .text	0000009c _fwrite_r
03090630 g     F .text	0000013c __swsetup_r
03097a90 g     F .text	000007ac alt_read_cfi_width
0308b33c g     F .text	00000258 __divdf3
0308c6c0 g     F .text	000000f0 __sfp
03081f0c g     F .text	00000084 Flash_GetBlockCount
03092cf4 g     F .text	00000058 __copybits
03086008 g     F .text	00000170 estimateI
0204510c g     O .rodata	00000020 voltageTable
020614b4 g     O .rwdata	00000408 __malloc_av_
0308c554 g     F .text	00000004 __sinit_lock_release
030904c4 g     F .text	000000b4 _vsnprintf_r
03080944 g     F .text	00000078 i2c_stop
0308af78 g     F .text	000003c4 __muldf3
03101000 g       *ABS*	00000000 __alt_mem_epcs_flash_controller
0308e43c g     F .text	00000060 __sread
0205ef14 g     O .rodata	00000010 __thenan_sf
0309b3c4 g     F .text	00000120 alt_find_file
0309b154 g     F .text	000000b4 alt_dev_llist_insert
03095bc0 g     F .text	00000020 __malloc_lock
030874a8 g     F .text	000002bc vid_copy_line_to_frame_buffer
030960a4 g     F .text	000000bc sbrk
0308c2c0 g     F .text	000001fc _fflush_r
030942e8 g     F .text	000000b4 _calloc_r
02062dd4 g     O .rwdata	00000008 alt_flash_dev_list
0309703c g     F .text	00000044 alt_write_flash_command_16bit_device_16bit_mode
030859b8 g     F .text	00000070 QUEUE_New
0308c8a4 g     F .text	0000001c fopen
03081718 g     F .text	00000184 Flash_InfoDump
02062df4 g       *ABS*	00000000 __bss_start
03085d14 g     F .text	00000108 readadc
02062e64 g     O .bss	00000050 data
0308ddcc g     F .text	00000098 memset
030845bc g     F .text	000000f0 main
02062e24 g     O .bss	00000004 alt_envp
02062e08 g     O .bss	00000004 __malloc_max_total_mem
03081614 g     F .text	00000080 myprintf_hexarray
03098d54 g     F .text	00000058 altera_avalon_jtag_uart_write_fd
03080b28 g     F .text	0000014c i2c_read
02062eb4 g     O .bss	0000000c a2
030942cc g     F .text	0000001c __swbuf
0308a0ac g     F .text	00000034 FrameReader_SelectFrame
0205f934 g     O .rwdata	00000bc0 tahomabold_20
0309a550 g     F .text	0000013c altera_avalon_lcd_16207_init
0308e350 g     F .text	00000008 __sclose
0308a5ec g     F .text	00000008 matherr
02800000 g       *ABS*	00000000 __alt_heap_limit
0308993c g     F .text	000001ac vid_print_char_alpha
0308c2ac g     F .text	00000014 fclose
02062d9c g     O .rwdata	00000004 cour10_font
02062fcc g     O .bss	00000190 _atexit0
030909f4 g     F .text	000015b4 _dtoa_r
0308d5ec g     F .text	00000740 _malloc_r
02062dd0 g     O .rwdata	00000004 alt_errno
030970c8 g     F .text	00000048 alt_write_flash_command_32bit_device_32bit_mode
0308d29c g     F .text	000000b8 _fwalk
03082924 g     F .text	000000b4 PtDistance
030826ec g     F .text	0000005c RectSet
03096a34 g     F .text	00000164 alt_write_value_to_flash
03097144 g     F .text	00000034 alt_write_native_16bit
03093848 g     F .text	00000104 putc
0308b868 g     F .text	00000060 __divsi3
03081400 g     F .text	0000005c LCD_Open
03082858 g     F .text	00000064 RectCopy
02c00000 g       *ABS*	00000000 __alt_mem_cfi_flash
0205ef24 g     O .rodata	00000014 __thenan_df
0308c8c0 g     F .text	0000012c _malloc_trim_r
0309c5fc g       *ABS*	00000000 __CTOR_END__
0308a5f4 g     F .text	000001e0 __mulsf3
03089e34 g     F .text	00000054 VIPFR_GetDrawFrame
02044dd8 g     O .rodata	00000024 xdata
03098734 g     F .text	00000280 alt_epcs_flash_write
030940e0 g     F .text	000000bc strcmp
0308948c g     F .text	0000021c read_from_frame
0309c5fc g       *ABS*	00000000 __DTOR_LIST__
03086d94 g     F .text	00000074 vid_get_pixel
02044dfc g     O .rodata	00000024 ydata
03094fb0 g     F .text	00000088 __nedf2
030964b4 g     F .text	00000034 alt_irq_init
03096044 g     F .text	00000060 alt_release_fd
0308e27c g     F .text	00000074 sprintf
0205ef38 g     O .rodata	00000100 __clz_tab
03081f90 g     F .text	000000e8 Flash_Size
03081584 g     F .text	00000030 debug_output
02062e14 g     O .bss	00000004 _PathLocale
0309c1f0 g     F .text	00000014 atexit
030905b8 g     F .text	00000078 _write_r
03082628 g     F .text	00000084 IsPtInRect
030925fc g     F .text	0000001c setlocale
02062da4 g     O .rwdata	00000004 _impure_ptr
02062e1c g     O .bss	00000004 alt_argc
0309b2cc g     F .text	00000064 _do_dtors
02062d94 g     O .rwdata	00000004 res_opts_count
03081694 g     F .text	00000084 myprintf_dwordarray
03080f58 g     F .text	000001e0 I2CL_MultipleRead
0308cd00 g     F .text	0000043c _fseek_r
0308e02c g     F .text	000001c4 __srefill_r
03080020 g       .exceptions	00000000 alt_irq_entry
03092a10 g     F .text	00000080 __ulp
030940a0 g     F .text	00000040 __isinfd
0308c60c g     F .text	00000018 __fp_unlock_all
0309a68c g     F .text	00000058 altera_avalon_lcd_16207_write_fd
02062dbc g     O .rwdata	00000008 alt_fs_list
030868e8 g     F .text	00000114 vid_print_string
03096ff4 g     F .text	00000048 alt_write_flash_command_32bit_device_8bit_mode
0308a020 g     F .text	0000008c FrameReader_SetFrame1
03092568 g     F .text	00000010 localeconv
0309a9a8 g     F .text	0000014c epcs_read_buffer
0308a2f4 g     F .text	000002c8 __ieee754_sqrt
03098318 g     F .text	00000054 alt_epcs_flash_init
0308d3f0 g     F .text	00000040 fwrite
02062df4 g       *ABS*	00000000 _edata
03083a60 g     F .text	00000058 GUI_TraceGesture
0206315c g       *ABS*	00000000 _end
03095520 g     F .text	0000007c alt_flash_open_dev
03083d9c g     F .text	00000060 ShowInfo
03085e80 g     F .text	0000004c vin
030885a0 g     F .text	00000054 max3
030849e4 g     F .text	000000d0 MTC_Init
02045190 g     O .rodata	00000044 reffITable
0309924c g     F .text	000000f4 altera_avalon_jtag_uart_ioctl
0308a118 g     F .text	000000ac VIPFR_ReserveBackground
0309ae04 g     F .text	00000058 epcs_enter_4_bytes_mode
03087354 g     F .text	0000004c vid_merge_colors
03081bb8 g     F .text	00000260 Flash_Write
0308e3c0 g     F .text	0000007c __swrite
02062dac g     O .rwdata	00000004 __malloc_trim_threshold
0309b6d8 g     F .text	00000020 altera_nios2_qsys_irq_init
0309c204 g     F .text	00000038 exit
02062d90 g     O .rwdata	00000004 arr_lengths
0308d1d4 g     F .text	000000c8 _fwalk_reent
0309300c g     F .text	0000018c __mdiff
0309559c g     F .text	00000054 alt_flash_close_dev
0308350c g     F .text	000000bc IsContinuedPoint
0308b8c8 g     F .text	00000060 __modsi3
02800000 g       *ABS*	00000000 __alt_data_end
03080020 g     F .exceptions	00000000 alt_exception
0308c54c g     F .text	00000004 __sfp_lock_release
02000000 g       *ABS*	00000000 __alt_mem_sdram
03085a28 g     F .text	00000030 QUEUE_Delete
0205f298 g     O .rodata	00000101 _ctype_
03086c20 g     F .text	00000174 vid_set_pixel
03084afc g     F .text	000000e0 MTC_GetStatus
03089ce4 g     F .text	00000110 VIPFR_SetFrameSize
0308c7b0 g     F .text	000000f4 _fopen_r
0309c5d8 g     F .text	00000020 _exit
0308a5bc g     F .text	00000030 __isnand
0309aeb4 g     F .text	00000154 alt_alarm_start
0308628c g     F .text	0000003c vid_scroll_string_quit
0308b938 g     F .text	00000098 __muldi3
0308d430 g     F .text	00000194 __smakebuf_r
03097178 g     F .text	00000030 alt_write_native_32bit
0308e528 g     F .text	00000074 strlen
0309aaf4 g     F .text	00000050 epcs_write_enable
03095cdc g     F .text	00000188 open
030950c0 g     F .text	00000088 __gedf2
03082748 g     F .text	00000088 RectInflate
0309693c g     F .text	00000090 alt_flash_cfi_get_info
02062df8 g     O .bss	00000004 isHigh
02062ddc g     O .rwdata	00000004 alt_priority_mask
03085ecc g     F .text	000000ec estimateV
030904a0 g     F .text	00000024 __vfprintf_internal
0204514c g     O .rodata	00000044 currentTable
02062d98 g     O .rwdata	00000004 wind_opts_count
0308ae84 g     F .text	00000080 __subdf3
02062ec0 g     O .bss	0000000c a0
030887b8 g     F .text	00000260 vid_bres_scan_edges
03098c64 g     F .text	00000098 alt_epcs_flash_read
030928ec g     F .text	000000c4 __lo0bits
03081e18 g     F .text	000000f4 Flash_Erase
02062de4 g     O .rwdata	00000008 alt_alarm_list
03088648 g     F .text	00000064 max_diff3
0309b268 g     F .text	00000064 _do_ctors
03080c74 g     F .text	0000015c I2CL_Write
03089334 g     F .text	00000158 merge_color_channels
030952dc g     F .text	000000fc close
0309b6f8 g     F .text	00000068 alt_program_amd
0308bc78 g     F .text	00000314 __pack_d
0308d5c4 g     F .text	00000014 free
0308c550 g     F .text	00000004 __sinit_lock_acquire
0309aba8 g     F .text	00000170 epcs_write_buffer
03093508 g     F .text	00000100 __multadd
03092854 g     F .text	00000028 _Bfree



Disassembly of section .exceptions:

03080020 <alt_exception>:
         * Process an exception.  For all exceptions we must preserve all
         * caller saved registers on the stack (See the Nios2 ABI
         * documentation for details).
         */

        addi  sp, sp, -76
 3080020:	deffed04 	addi	sp,sp,-76

#endif

#endif

        stw   ra,  0(sp)
 3080024:	dfc00015 	stw	ra,0(sp)
        /*
         * Leave a gap in the stack frame at 4(sp) for the muldiv handler to
         * store zero into.
         */

        stw   r1,   8(sp)
 3080028:	d8400215 	stw	at,8(sp)
        stw   r2,  12(sp)
 308002c:	d8800315 	stw	r2,12(sp)
        stw   r3,  16(sp)
 3080030:	d8c00415 	stw	r3,16(sp)
        stw   r4,  20(sp)
 3080034:	d9000515 	stw	r4,20(sp)
        stw   r5,  24(sp)
 3080038:	d9400615 	stw	r5,24(sp)
        stw   r6,  28(sp)
 308003c:	d9800715 	stw	r6,28(sp)
        stw   r7,  32(sp)
 3080040:	d9c00815 	stw	r7,32(sp)

        rdctl r5, estatus
 3080044:	000b307a 	rdctl	r5,estatus

        stw   r8,  36(sp)
 3080048:	da000915 	stw	r8,36(sp)
        stw   r9,  40(sp)
 308004c:	da400a15 	stw	r9,40(sp)
        stw   r10, 44(sp)
 3080050:	da800b15 	stw	r10,44(sp)
        stw   r11, 48(sp)
 3080054:	dac00c15 	stw	r11,48(sp)
        stw   r12, 52(sp)
 3080058:	db000d15 	stw	r12,52(sp)
        stw   r13, 56(sp)
 308005c:	db400e15 	stw	r13,56(sp)
        stw   r14, 60(sp)
 3080060:	db800f15 	stw	r14,60(sp)
        stw   r15, 64(sp)
 3080064:	dbc01015 	stw	r15,64(sp)
        /*
         * ea-4 contains the address of the instruction being executed
         * when the exception occured. For interrupt exceptions, we will
         * will be re-issue the isntruction. Store it in 72(sp)
         */
        stw   r5,  68(sp)  /* estatus */
 3080068:	d9401115 	stw	r5,68(sp)
        addi  r15, ea, -4  /* instruction that caused exception */
 308006c:	ebffff04 	addi	r15,ea,-4
        stw   r15,  72(sp)
 3080070:	dbc01215 	stw	r15,72(sp)
#else
        /*
         * Test to see if the exception was a software exception or caused 
         * by an external interrupt, and vector accordingly.
         */
        rdctl r4, ipending
 3080074:	0009313a 	rdctl	r4,ipending
        andi  r2, r5, 1
 3080078:	2880004c 	andi	r2,r5,1
        beq   r2, zero, .Lnot_irq
 308007c:	10000326 	beq	r2,zero,308008c <alt_exception+0x6c>
        beq   r4, zero, .Lnot_irq
 3080080:	20000226 	beq	r4,zero,308008c <alt_exception+0x6c>
        /*
         * Now that all necessary registers have been preserved, call 
         * alt_irq_handler() to process the interrupts.
         */

        call alt_irq_handler
 3080084:	30800ec0 	call	30800ec <alt_irq_handler>

        .section .exceptions.irqreturn, "xa"

        br    .Lexception_exit
 3080088:	00000306 	br	3080098 <alt_exception+0x78>
         * upon completion, so we write ea (address of instruction *after*
         * the one where the exception occured) into 72(sp). The actual
         * instruction that caused the exception is written in r2, which these
         * handlers will utilize.
         */
        stw   ea,  72(sp)  /* Don't re-issue */
 308008c:	df401215 	stw	ea,72(sp)
        ldw   r2, -4(ea)   /* Instruction that caused exception */
 3080090:	e8bfff17 	ldw	r2,-4(ea)
#ifdef NIOS2_HAS_DEBUG_STUB
       /*
        *  Either tell the user now (if there is a debugger attached) or go into
        *  the debug monitor which will loop until a debugger is attached.
        */
        break
 3080094:	003da03a 	break	0
        /* 
         * Restore the saved registers, so that all general purpose registers 
         * have been restored to their state at the time the interrupt occured.
         */

        ldw   r5,  68(sp)
 3080098:	d9401117 	ldw	r5,68(sp)
        ldw   ea,  72(sp)  /* This becomes the PC once eret is executed */
 308009c:	df401217 	ldw	ea,72(sp)
        ldw   ra,   0(sp)
 30800a0:	dfc00017 	ldw	ra,0(sp)

        wrctl estatus, r5
 30800a4:	2801707a 	wrctl	estatus,r5

        ldw   r1,   8(sp)
 30800a8:	d8400217 	ldw	at,8(sp)
        ldw   r2,  12(sp)
 30800ac:	d8800317 	ldw	r2,12(sp)
        ldw   r3,  16(sp)
 30800b0:	d8c00417 	ldw	r3,16(sp)
        ldw   r4,  20(sp)
 30800b4:	d9000517 	ldw	r4,20(sp)
        ldw   r5,  24(sp)
 30800b8:	d9400617 	ldw	r5,24(sp)
        ldw   r6,  28(sp)
 30800bc:	d9800717 	ldw	r6,28(sp)
        ldw   r7,  32(sp)
 30800c0:	d9c00817 	ldw	r7,32(sp)
#ifdef ALT_STACK_CHECK
        ldw   et, %gprel(alt_exception_old_stack_limit)(gp)
#endif
#endif

        ldw   r8,  36(sp)
 30800c4:	da000917 	ldw	r8,36(sp)
        ldw   r9,  40(sp)
 30800c8:	da400a17 	ldw	r9,40(sp)
        ldw   r10, 44(sp)
 30800cc:	da800b17 	ldw	r10,44(sp)
        ldw   r11, 48(sp)
 30800d0:	dac00c17 	ldw	r11,48(sp)
        ldw   r12, 52(sp)
 30800d4:	db000d17 	ldw	r12,52(sp)
        ldw   r13, 56(sp)
 30800d8:	db400e17 	ldw	r13,56(sp)
        ldw   r14, 60(sp)
 30800dc:	db800f17 	ldw	r14,60(sp)
        ldw   r15, 64(sp)
 30800e0:	dbc01017 	ldw	r15,64(sp)
#endif

        ldw   sp,  76(sp)

#else
        addi  sp, sp, 76
 30800e4:	dec01304 	addi	sp,sp,76

        /*
         * Return to the interrupted instruction.
         */

        eret
 30800e8:	ef80083a 	eret

030800ec <alt_irq_handler>:
 * instruction is present if the macro ALT_CI_INTERRUPT_VECTOR defined.
 */

void alt_irq_handler (void) __attribute__ ((section (".exceptions")));
void alt_irq_handler (void)
{
 30800ec:	defff904 	addi	sp,sp,-28
 30800f0:	dfc00615 	stw	ra,24(sp)
 30800f4:	df000515 	stw	fp,20(sp)
 30800f8:	df000504 	addi	fp,sp,20
#ifndef NIOS2_EIC_PRESENT
static ALT_INLINE alt_u32 ALT_ALWAYS_INLINE alt_irq_pending (void)
{
  alt_u32 active;

  NIOS2_READ_IPENDING (active);
 30800fc:	0005313a 	rdctl	r2,ipending
 3080100:	e0bffc15 	stw	r2,-16(fp)

  return active;
 3080104:	e0bffc17 	ldw	r2,-16(fp)
   * Consider the case where the high priority interupt is asserted during
   * the interrupt entry sequence for a lower priority interrupt to see why
   * this is the case.
   */

  active = alt_irq_pending ();
 3080108:	e0bfff15 	stw	r2,-4(fp)

  do
  {
    i = 0;
 308010c:	e03ffd15 	stw	zero,-12(fp)
    mask = 1;
 3080110:	00800044 	movi	r2,1
 3080114:	e0bffe15 	stw	r2,-8(fp)
     * called to clear the interrupt condition.
     */

    do
    {
      if (active & mask)
 3080118:	e0ffff17 	ldw	r3,-4(fp)
 308011c:	e0bffe17 	ldw	r2,-8(fp)
 3080120:	1884703a 	and	r2,r3,r2
 3080124:	1005003a 	cmpeq	r2,r2,zero
 3080128:	1000171e 	bne	r2,zero,3080188 <alt_irq_handler+0x9c>
      { 
#ifdef ALT_ENHANCED_INTERRUPT_API_PRESENT
        alt_irq[i].handler(alt_irq[i].context); 
#else
        alt_irq[i].handler(alt_irq[i].context, i); 
 308012c:	e0bffd17 	ldw	r2,-12(fp)
 3080130:	00c081b4 	movhi	r3,518
 3080134:	18cbb304 	addi	r3,r3,11980
 3080138:	100490fa 	slli	r2,r2,3
 308013c:	10c5883a 	add	r2,r2,r3
 3080140:	11800017 	ldw	r6,0(r2)
 3080144:	e0bffd17 	ldw	r2,-12(fp)
 3080148:	00c081b4 	movhi	r3,518
 308014c:	18cbb304 	addi	r3,r3,11980
 3080150:	100490fa 	slli	r2,r2,3
 3080154:	10c5883a 	add	r2,r2,r3
 3080158:	10800104 	addi	r2,r2,4
 308015c:	11000017 	ldw	r4,0(r2)
 3080160:	e17ffd17 	ldw	r5,-12(fp)
 3080164:	303ee83a 	callr	r6
#ifndef NIOS2_EIC_PRESENT
static ALT_INLINE alt_u32 ALT_ALWAYS_INLINE alt_irq_pending (void)
{
  alt_u32 active;

  NIOS2_READ_IPENDING (active);
 3080168:	0005313a 	rdctl	r2,ipending
 308016c:	e0bffb15 	stw	r2,-20(fp)

  return active;
 3080170:	e0bffb17 	ldw	r2,-20(fp)
      mask <<= 1;
      i++;

    } while (1);

    active = alt_irq_pending ();
 3080174:	e0bfff15 	stw	r2,-4(fp)
    
  } while (active);
 3080178:	e0bfff17 	ldw	r2,-4(fp)
 308017c:	1004c03a 	cmpne	r2,r2,zero
 3080180:	103fe21e 	bne	r2,zero,308010c <alt_irq_handler+0x20>
 3080184:	00000706 	br	30801a4 <alt_irq_handler+0xb8>
#else
        alt_irq[i].handler(alt_irq[i].context, i); 
#endif
        break;
      }
      mask <<= 1;
 3080188:	e0bffe17 	ldw	r2,-8(fp)
 308018c:	1085883a 	add	r2,r2,r2
 3080190:	e0bffe15 	stw	r2,-8(fp)
      i++;
 3080194:	e0bffd17 	ldw	r2,-12(fp)
 3080198:	10800044 	addi	r2,r2,1
 308019c:	e0bffd15 	stw	r2,-12(fp)

    } while (1);
 30801a0:	003fdd06 	br	3080118 <alt_irq_handler+0x2c>
  /*
   * Notify the operating system that interrupt processing is complete.
   */ 

  ALT_OS_INT_EXIT();
}
 30801a4:	e037883a 	mov	sp,fp
 30801a8:	dfc00117 	ldw	ra,4(sp)
 30801ac:	df000017 	ldw	fp,0(sp)
 30801b0:	dec00204 	addi	sp,sp,8
 30801b4:	f800283a 	ret

Disassembly of section .text:

030801b8 <_start>:

    /* Assume the data cache size is always a power of two. */
#if NIOS2_DCACHE_SIZE > 0x8000
    movhi r2, %hi(NIOS2_DCACHE_SIZE)
#else
    movui r2, NIOS2_DCACHE_SIZE
 30801b8:	00820014 	movui	r2,2048
#endif

0:
    initd 0(r2)
 30801bc:	10000033 	initd	0(r2)
    addi r2, r2, -NIOS2_DCACHE_LINE_SIZE
 30801c0:	10bff804 	addi	r2,r2,-32
    bgt r2, zero, 0b
 30801c4:	00bffd16 	blt	zero,r2,30801bc <_start+0x4>
#if (NIOS2_NUM_OF_SHADOW_REG_SETS == 0)    
    /*
     * Now that the caches are initialized, set up the stack pointer.
     * The value provided by the linker is assumed to be correctly aligned.
     */
    movhi sp, %hi(__alt_stack_pointer)
 30801c8:	06c0a034 	movhi	sp,640
    ori sp, sp, %lo(__alt_stack_pointer)
 30801cc:	dec00014 	ori	sp,sp,0

    /* Set up the global pointer. */
    movhi gp, %hi(_gp)
 30801d0:	068081b4 	movhi	gp,518
    ori gp, gp, %lo(_gp)
 30801d4:	d6ab6414 	ori	gp,gp,44432
 */
#ifndef ALT_SIM_OPTIMIZE
    /* Log that the BSS is about to be cleared. */
    ALT_LOG_PUTS(alt_log_msg_bss)

    movhi r2, %hi(__bss_start)
 30801d8:	008081b4 	movhi	r2,518
    ori r2, r2, %lo(__bss_start)
 30801dc:	108b7d14 	ori	r2,r2,11764

    movhi r3, %hi(__bss_end)
 30801e0:	00c081b4 	movhi	r3,518
    ori r3, r3, %lo(__bss_end)
 30801e4:	18cc5714 	ori	r3,r3,12636

    beq r2, r3, 1f
 30801e8:	10c00326 	beq	r2,r3,30801f8 <_start+0x40>

0:
    stw zero, (r2)
 30801ec:	10000015 	stw	zero,0(r2)
    addi r2, r2, 4
 30801f0:	10800104 	addi	r2,r2,4
    bltu r2, r3, 0b
 30801f4:	10fffd36 	bltu	r2,r3,30801ec <_start+0x34>

    /* Log that alt_main is about to be called. */
    ALT_LOG_PUTS(alt_log_msg_alt_main)

    /* Call the C entry point. It should never return. */
    call alt_main
 30801f8:	3095b540 	call	3095b54 <alt_main>

030801fc <alt_after_alt_main>:

    /* Wait in infinite loop in case alt_main does return. */
alt_after_alt_main:
    br alt_after_alt_main
 30801fc:	003fff06 	br	30801fc <alt_after_alt_main>

03080200 <my_wait>:
    #define I2C_DEBUG(x)    DEBUG(x)  
#else
    #define I2C_DEBUG(x)
#endif

void my_wait(int nWait){
 3080200:	defffd04 	addi	sp,sp,-12
 3080204:	df000215 	stw	fp,8(sp)
 3080208:	df000204 	addi	fp,sp,8
 308020c:	e13fff15 	stw	r4,-4(fp)
    int i;
    i = 0;
 3080210:	e03ffe15 	stw	zero,-8(fp)
    while (i < nWait){
 3080214:	00000306 	br	3080224 <my_wait+0x24>
        i++;
 3080218:	e0bffe17 	ldw	r2,-8(fp)
 308021c:	10800044 	addi	r2,r2,1
 3080220:	e0bffe15 	stw	r2,-8(fp)
#endif

void my_wait(int nWait){
    int i;
    i = 0;
    while (i < nWait){
 3080224:	e0fffe17 	ldw	r3,-8(fp)
 3080228:	e0bfff17 	ldw	r2,-4(fp)
 308022c:	18bffa16 	blt	r3,r2,3080218 <my_wait+0x18>
        i++;
     //   IOWR(LED_BASE, 0, i);
    }    
}
 3080230:	e037883a 	mov	sp,fp
 3080234:	df000017 	ldw	fp,0(sp)
 3080238:	dec00104 	addi	sp,sp,4
 308023c:	f800283a 	ret

03080240 <I2C_Write>:
bool i2c_write(alt_u32 clk_base, alt_u32 data_base, alt_u8 Data);
void i2c_read(alt_u32 clk_base, alt_u32 data_base, alt_u8 *pData, bool bAck);



bool I2C_Write(alt_u32 clk_base, alt_u32 data_base, alt_8 DeviceAddr, alt_u8 ControlAddr, alt_u8 ControlData){
 3080240:	defff804 	addi	sp,sp,-32
 3080244:	dfc00715 	stw	ra,28(sp)
 3080248:	df000615 	stw	fp,24(sp)
 308024c:	df000604 	addi	fp,sp,24
 3080250:	e13ffb15 	stw	r4,-20(fp)
 3080254:	e17ffc15 	stw	r5,-16(fp)
 3080258:	e0800217 	ldw	r2,8(fp)
 308025c:	e1bffd05 	stb	r6,-12(fp)
 3080260:	e1fffe05 	stb	r7,-8(fp)
 3080264:	e0bfff05 	stb	r2,-4(fp)
    bool bSuccess = TRUE;
 3080268:	00800044 	movi	r2,1
 308026c:	e0bffa15 	stw	r2,-24(fp)
    //alt_u8 DeviceAddr;
    
    // device id
    //DeviceAddr = HMB_E2_I2C_ID;

    i2c_start(clk_base, data_base);
 3080270:	e13ffb17 	ldw	r4,-20(fp)
 3080274:	e17ffc17 	ldw	r5,-16(fp)
 3080278:	30808bc0 	call	30808bc <i2c_start>
    if (!i2c_write(clk_base, data_base, DeviceAddr)){  // send ID
 308027c:	e0bffd03 	ldbu	r2,-12(fp)
 3080280:	11803fcc 	andi	r6,r2,255
 3080284:	e13ffb17 	ldw	r4,-20(fp)
 3080288:	e17ffc17 	ldw	r5,-16(fp)
 308028c:	30809bc0 	call	30809bc <i2c_write>
 3080290:	1004c03a 	cmpne	r2,r2,zero
 3080294:	1000041e 	bne	r2,zero,30802a8 <I2C_Write+0x68>
        bSuccess = FALSE;
 3080298:	e03ffa15 	stw	zero,-24(fp)
        I2C_DEBUG(("I2C HMB_E2 Fail: Address NACK!\n"));
 308029c:	01008034 	movhi	r4,512
 30802a0:	21000004 	addi	r4,r4,0
 30802a4:	30815b40 	call	30815b4 <myprintf>
    }
    if (bSuccess && !i2c_write(clk_base, data_base, ControlAddr)){ // send sub-address
 30802a8:	e0bffa17 	ldw	r2,-24(fp)
 30802ac:	1005003a 	cmpeq	r2,r2,zero
 30802b0:	10000a1e 	bne	r2,zero,30802dc <I2C_Write+0x9c>
 30802b4:	e1bffe03 	ldbu	r6,-8(fp)
 30802b8:	e13ffb17 	ldw	r4,-20(fp)
 30802bc:	e17ffc17 	ldw	r5,-16(fp)
 30802c0:	30809bc0 	call	30809bc <i2c_write>
 30802c4:	1004c03a 	cmpne	r2,r2,zero
 30802c8:	1000041e 	bne	r2,zero,30802dc <I2C_Write+0x9c>
        bSuccess = FALSE;
 30802cc:	e03ffa15 	stw	zero,-24(fp)
        I2C_DEBUG(("I2C HMB_E2 Fail: SubAddress NACK!\n"));
 30802d0:	01008034 	movhi	r4,512
 30802d4:	21000804 	addi	r4,r4,32
 30802d8:	30815b40 	call	30815b4 <myprintf>
    }            
    if (bSuccess && !i2c_write(clk_base, data_base, ControlData)){  
 30802dc:	e0bffa17 	ldw	r2,-24(fp)
 30802e0:	1005003a 	cmpeq	r2,r2,zero
 30802e4:	10000a1e 	bne	r2,zero,3080310 <I2C_Write+0xd0>
 30802e8:	e1bfff03 	ldbu	r6,-4(fp)
 30802ec:	e13ffb17 	ldw	r4,-20(fp)
 30802f0:	e17ffc17 	ldw	r5,-16(fp)
 30802f4:	30809bc0 	call	30809bc <i2c_write>
 30802f8:	1004c03a 	cmpne	r2,r2,zero
 30802fc:	1000041e 	bne	r2,zero,3080310 <I2C_Write+0xd0>
        bSuccess = FALSE;
 3080300:	e03ffa15 	stw	zero,-24(fp)
        I2C_DEBUG(("I2C HMB_E2 Fail: write NACK!\n"));
 3080304:	01008034 	movhi	r4,512
 3080308:	21001104 	addi	r4,r4,68
 308030c:	30815b40 	call	30815b4 <myprintf>
    }
    i2c_stop(clk_base, data_base);
 3080310:	e13ffb17 	ldw	r4,-20(fp)
 3080314:	e17ffc17 	ldw	r5,-16(fp)
 3080318:	30809440 	call	3080944 <i2c_stop>
    
    usleep(7*1000); // delay to wait EE2 ready (at least 5 ms delay is required)
 308031c:	0106d604 	movi	r4,7000
 3080320:	30963040 	call	3096304 <usleep>
    
    return bSuccess;
 3080324:	e0bffa17 	ldw	r2,-24(fp)

    
}
 3080328:	e037883a 	mov	sp,fp
 308032c:	dfc00117 	ldw	ra,4(sp)
 3080330:	df000017 	ldw	fp,0(sp)
 3080334:	dec00204 	addi	sp,sp,8
 3080338:	f800283a 	ret

0308033c <I2C_Write16>:

bool I2C_Write16(alt_u32 clk_base, alt_u32 data_base, alt_8 DeviceAddr, alt_u8 ControlAddr, alt_u16 ControlData){
 308033c:	defff704 	addi	sp,sp,-36
 3080340:	dfc00815 	stw	ra,32(sp)
 3080344:	df000715 	stw	fp,28(sp)
 3080348:	df000704 	addi	fp,sp,28
 308034c:	e13ffb15 	stw	r4,-20(fp)
 3080350:	e17ffc15 	stw	r5,-16(fp)
 3080354:	e0800217 	ldw	r2,8(fp)
 3080358:	e1bffd05 	stb	r6,-12(fp)
 308035c:	e1fffe05 	stb	r7,-8(fp)
 3080360:	e0bfff0d 	sth	r2,-4(fp)
    bool bSuccess = TRUE;
 3080364:	00800044 	movi	r2,1
 3080368:	e0bffa15 	stw	r2,-24(fp)
    alt_u8 HighByte, LowByte;
    //alt_u8 DeviceAddr;
    HighByte = (ControlData >> 8) & 0xFF;
 308036c:	e0bfff0b 	ldhu	r2,-4(fp)
 3080370:	1004d23a 	srli	r2,r2,8
 3080374:	1007883a 	mov	r3,r2
 3080378:	00bfffc4 	movi	r2,-1
 308037c:	1884703a 	and	r2,r3,r2
 3080380:	e0bff945 	stb	r2,-27(fp)
    LowByte = ControlData & 0xFF; 
 3080384:	e0bfff0b 	ldhu	r2,-4(fp)
 3080388:	1007883a 	mov	r3,r2
 308038c:	00bfffc4 	movi	r2,-1
 3080390:	1884703a 	and	r2,r3,r2
 3080394:	e0bff905 	stb	r2,-28(fp)
    
    // device id
    //DeviceAddr = HMB_E2_I2C_ID;

    i2c_start(clk_base, data_base);
 3080398:	e13ffb17 	ldw	r4,-20(fp)
 308039c:	e17ffc17 	ldw	r5,-16(fp)
 30803a0:	30808bc0 	call	30808bc <i2c_start>
    if (!i2c_write(clk_base, data_base, DeviceAddr)){  // send ID
 30803a4:	e0bffd03 	ldbu	r2,-12(fp)
 30803a8:	11803fcc 	andi	r6,r2,255
 30803ac:	e13ffb17 	ldw	r4,-20(fp)
 30803b0:	e17ffc17 	ldw	r5,-16(fp)
 30803b4:	30809bc0 	call	30809bc <i2c_write>
 30803b8:	1004c03a 	cmpne	r2,r2,zero
 30803bc:	1000041e 	bne	r2,zero,30803d0 <I2C_Write16+0x94>
        bSuccess = FALSE;
 30803c0:	e03ffa15 	stw	zero,-24(fp)
        I2C_DEBUG(("I2C HMB_E2 Fail: Address NACK!\n"));
 30803c4:	01008034 	movhi	r4,512
 30803c8:	21000004 	addi	r4,r4,0
 30803cc:	30815b40 	call	30815b4 <myprintf>
    }
    if (bSuccess && !i2c_write(clk_base, data_base, ControlAddr)){ // send sub-address
 30803d0:	e0bffa17 	ldw	r2,-24(fp)
 30803d4:	1005003a 	cmpeq	r2,r2,zero
 30803d8:	10000a1e 	bne	r2,zero,3080404 <I2C_Write16+0xc8>
 30803dc:	e1bffe03 	ldbu	r6,-8(fp)
 30803e0:	e13ffb17 	ldw	r4,-20(fp)
 30803e4:	e17ffc17 	ldw	r5,-16(fp)
 30803e8:	30809bc0 	call	30809bc <i2c_write>
 30803ec:	1004c03a 	cmpne	r2,r2,zero
 30803f0:	1000041e 	bne	r2,zero,3080404 <I2C_Write16+0xc8>
        bSuccess = FALSE;
 30803f4:	e03ffa15 	stw	zero,-24(fp)
        I2C_DEBUG(("I2C HMB_E2 Fail: SubAddress NACK!\n"));
 30803f8:	01008034 	movhi	r4,512
 30803fc:	21000804 	addi	r4,r4,32
 3080400:	30815b40 	call	30815b4 <myprintf>
    }            
    if (bSuccess && !i2c_write(clk_base, data_base, HighByte)){  
 3080404:	e0bffa17 	ldw	r2,-24(fp)
 3080408:	1005003a 	cmpeq	r2,r2,zero
 308040c:	10000a1e 	bne	r2,zero,3080438 <I2C_Write16+0xfc>
 3080410:	e1bff943 	ldbu	r6,-27(fp)
 3080414:	e13ffb17 	ldw	r4,-20(fp)
 3080418:	e17ffc17 	ldw	r5,-16(fp)
 308041c:	30809bc0 	call	30809bc <i2c_write>
 3080420:	1004c03a 	cmpne	r2,r2,zero
 3080424:	1000041e 	bne	r2,zero,3080438 <I2C_Write16+0xfc>
        bSuccess = FALSE;
 3080428:	e03ffa15 	stw	zero,-24(fp)
        I2C_DEBUG(("I2C HMB_E2 Fail: write NACK!\n"));
 308042c:	01008034 	movhi	r4,512
 3080430:	21001104 	addi	r4,r4,68
 3080434:	30815b40 	call	30815b4 <myprintf>
    }
    if (bSuccess && !i2c_write(clk_base, data_base, LowByte)){  
 3080438:	e0bffa17 	ldw	r2,-24(fp)
 308043c:	1005003a 	cmpeq	r2,r2,zero
 3080440:	10000a1e 	bne	r2,zero,308046c <I2C_Write16+0x130>
 3080444:	e1bff903 	ldbu	r6,-28(fp)
 3080448:	e13ffb17 	ldw	r4,-20(fp)
 308044c:	e17ffc17 	ldw	r5,-16(fp)
 3080450:	30809bc0 	call	30809bc <i2c_write>
 3080454:	1004c03a 	cmpne	r2,r2,zero
 3080458:	1000041e 	bne	r2,zero,308046c <I2C_Write16+0x130>
        bSuccess = FALSE;
 308045c:	e03ffa15 	stw	zero,-24(fp)
        I2C_DEBUG(("I2C HMB_E2 Fail: write NACK!\n"));
 3080460:	01008034 	movhi	r4,512
 3080464:	21001104 	addi	r4,r4,68
 3080468:	30815b40 	call	30815b4 <myprintf>
    }    
    i2c_stop(clk_base, data_base);
 308046c:	e13ffb17 	ldw	r4,-20(fp)
 3080470:	e17ffc17 	ldw	r5,-16(fp)
 3080474:	30809440 	call	3080944 <i2c_stop>
    
    usleep(7*1000); // delay to wait EE2 ready (at least 5 ms delay is required)
 3080478:	0106d604 	movi	r4,7000
 308047c:	30963040 	call	3096304 <usleep>
    
    return bSuccess;
 3080480:	e0bffa17 	ldw	r2,-24(fp)

    
}
 3080484:	e037883a 	mov	sp,fp
 3080488:	dfc00117 	ldw	ra,4(sp)
 308048c:	df000017 	ldw	fp,0(sp)
 3080490:	dec00204 	addi	sp,sp,8
 3080494:	f800283a 	ret

03080498 <I2C_Read>:

bool I2C_Read(alt_u32 clk_base, alt_u32 data_base, alt_8 DeviceAddr, alt_u8 ControlAddr, alt_u8 *pControlData){
 3080498:	defff904 	addi	sp,sp,-28
 308049c:	dfc00615 	stw	ra,24(sp)
 30804a0:	df000515 	stw	fp,20(sp)
 30804a4:	df000504 	addi	fp,sp,20
 30804a8:	e13ffc15 	stw	r4,-16(fp)
 30804ac:	e17ffd15 	stw	r5,-12(fp)
 30804b0:	e1bffe05 	stb	r6,-8(fp)
 30804b4:	e1ffff05 	stb	r7,-4(fp)
    bool bSuccess = TRUE;
 30804b8:	00800044 	movi	r2,1
 30804bc:	e0bffb15 	stw	r2,-20(fp)
    //alt_u8 DeviceAddr;
   
    // device id
    //DeviceAddr = HMB_E2_I2C_ID;

    i2c_start(clk_base, data_base);
 30804c0:	e13ffc17 	ldw	r4,-16(fp)
 30804c4:	e17ffd17 	ldw	r5,-12(fp)
 30804c8:	30808bc0 	call	30808bc <i2c_start>
    if (!i2c_write(clk_base, data_base, DeviceAddr)){  // send ID
 30804cc:	e0bffe03 	ldbu	r2,-8(fp)
 30804d0:	11803fcc 	andi	r6,r2,255
 30804d4:	e13ffc17 	ldw	r4,-16(fp)
 30804d8:	e17ffd17 	ldw	r5,-12(fp)
 30804dc:	30809bc0 	call	30809bc <i2c_write>
 30804e0:	1004c03a 	cmpne	r2,r2,zero
 30804e4:	1000041e 	bne	r2,zero,30804f8 <I2C_Read+0x60>
        bSuccess = FALSE;
 30804e8:	e03ffb15 	stw	zero,-20(fp)
        I2C_DEBUG(("I2C_Read(1) Fail: Address NACK!\n"));
 30804ec:	01008034 	movhi	r4,512
 30804f0:	21001904 	addi	r4,r4,100
 30804f4:	30815b40 	call	30815b4 <myprintf>
    }
    if (bSuccess && !i2c_write(clk_base, data_base, ControlAddr)){ // send sub-address
 30804f8:	e0bffb17 	ldw	r2,-20(fp)
 30804fc:	1005003a 	cmpeq	r2,r2,zero
 3080500:	10000a1e 	bne	r2,zero,308052c <I2C_Read+0x94>
 3080504:	e1bfff03 	ldbu	r6,-4(fp)
 3080508:	e13ffc17 	ldw	r4,-16(fp)
 308050c:	e17ffd17 	ldw	r5,-12(fp)
 3080510:	30809bc0 	call	30809bc <i2c_write>
 3080514:	1004c03a 	cmpne	r2,r2,zero
 3080518:	1000041e 	bne	r2,zero,308052c <I2C_Read+0x94>
        bSuccess = FALSE;
 308051c:	e03ffb15 	stw	zero,-20(fp)
        I2C_DEBUG(("I2C_Read(2) Fail: SubAddress NACK!\n"));
 3080520:	01008034 	movhi	r4,512
 3080524:	21002204 	addi	r4,r4,136
 3080528:	30815b40 	call	30815b4 <myprintf>
    }            
    i2c_start(clk_base, data_base);  // restart
 308052c:	e13ffc17 	ldw	r4,-16(fp)
 3080530:	e17ffd17 	ldw	r5,-12(fp)
 3080534:	30808bc0 	call	30808bc <i2c_start>
    DeviceAddr |= 1; // Read
 3080538:	e0bffe03 	ldbu	r2,-8(fp)
 308053c:	10800054 	ori	r2,r2,1
 3080540:	e0bffe05 	stb	r2,-8(fp)
    if (bSuccess && !i2c_write(clk_base, data_base, DeviceAddr)){  // send id
 3080544:	e0bffb17 	ldw	r2,-20(fp)
 3080548:	1005003a 	cmpeq	r2,r2,zero
 308054c:	10000b1e 	bne	r2,zero,308057c <I2C_Read+0xe4>
 3080550:	e0bffe03 	ldbu	r2,-8(fp)
 3080554:	11803fcc 	andi	r6,r2,255
 3080558:	e13ffc17 	ldw	r4,-16(fp)
 308055c:	e17ffd17 	ldw	r5,-12(fp)
 3080560:	30809bc0 	call	30809bc <i2c_write>
 3080564:	1004c03a 	cmpne	r2,r2,zero
 3080568:	1000041e 	bne	r2,zero,308057c <I2C_Read+0xe4>
        bSuccess = FALSE;
 308056c:	e03ffb15 	stw	zero,-20(fp)
        I2C_DEBUG(("I2C_Read(3) Fail: Address+1 NACK!\n"));
 3080570:	01008034 	movhi	r4,512
 3080574:	21002b04 	addi	r4,r4,172
 3080578:	30815b40 	call	30815b4 <myprintf>
    }
    
    if (bSuccess){
 308057c:	e0bffb17 	ldw	r2,-20(fp)
 3080580:	1005003a 	cmpeq	r2,r2,zero
 3080584:	1000051e 	bne	r2,zero,308059c <I2C_Read+0x104>
        i2c_read(clk_base, data_base, pControlData, FALSE);  // read
 3080588:	e13ffc17 	ldw	r4,-16(fp)
 308058c:	e17ffd17 	ldw	r5,-12(fp)
 3080590:	e1800217 	ldw	r6,8(fp)
 3080594:	000f883a 	mov	r7,zero
 3080598:	3080b280 	call	3080b28 <i2c_read>
    }        
    i2c_stop(clk_base, data_base);
 308059c:	e13ffc17 	ldw	r4,-16(fp)
 30805a0:	e17ffd17 	ldw	r5,-12(fp)
 30805a4:	30809440 	call	3080944 <i2c_stop>
    
    return bSuccess;
 30805a8:	e0bffb17 	ldw	r2,-20(fp)
}
 30805ac:	e037883a 	mov	sp,fp
 30805b0:	dfc00117 	ldw	ra,4(sp)
 30805b4:	df000017 	ldw	fp,0(sp)
 30805b8:	dec00204 	addi	sp,sp,8
 30805bc:	f800283a 	ret

030805c0 <I2C_Read16>:

bool I2C_Read16(alt_u32 clk_base, alt_u32 data_base, alt_8 DeviceAddr, alt_u8 ControlAddr, alt_u16 *pControlData){
 30805c0:	defff804 	addi	sp,sp,-32
 30805c4:	dfc00715 	stw	ra,28(sp)
 30805c8:	df000615 	stw	fp,24(sp)
 30805cc:	df000604 	addi	fp,sp,24
 30805d0:	e13ffc15 	stw	r4,-16(fp)
 30805d4:	e17ffd15 	stw	r5,-12(fp)
 30805d8:	e1bffe05 	stb	r6,-8(fp)
 30805dc:	e1ffff05 	stb	r7,-4(fp)
    bool bSuccess = TRUE;
 30805e0:	00800044 	movi	r2,1
 30805e4:	e0bffa15 	stw	r2,-24(fp)
    //alt_u8 DeviceAddr;
   
    // device id
    //DeviceAddr = HMB_E2_I2C_ID;

    i2c_start(clk_base, data_base);
 30805e8:	e13ffc17 	ldw	r4,-16(fp)
 30805ec:	e17ffd17 	ldw	r5,-12(fp)
 30805f0:	30808bc0 	call	30808bc <i2c_start>
    if (!i2c_write(clk_base, data_base, DeviceAddr)){  // send ID
 30805f4:	e0bffe03 	ldbu	r2,-8(fp)
 30805f8:	11803fcc 	andi	r6,r2,255
 30805fc:	e13ffc17 	ldw	r4,-16(fp)
 3080600:	e17ffd17 	ldw	r5,-12(fp)
 3080604:	30809bc0 	call	30809bc <i2c_write>
 3080608:	1004c03a 	cmpne	r2,r2,zero
 308060c:	1000041e 	bne	r2,zero,3080620 <I2C_Read16+0x60>
        bSuccess = FALSE;
 3080610:	e03ffa15 	stw	zero,-24(fp)
        I2C_DEBUG(("I2C HMB_E2 Fail: Address NACK!\n"));
 3080614:	01008034 	movhi	r4,512
 3080618:	21000004 	addi	r4,r4,0
 308061c:	30815b40 	call	30815b4 <myprintf>
    }
    if (bSuccess && !i2c_write(clk_base, data_base, ControlAddr)){ // send sub-address
 3080620:	e0bffa17 	ldw	r2,-24(fp)
 3080624:	1005003a 	cmpeq	r2,r2,zero
 3080628:	10000a1e 	bne	r2,zero,3080654 <I2C_Read16+0x94>
 308062c:	e1bfff03 	ldbu	r6,-4(fp)
 3080630:	e13ffc17 	ldw	r4,-16(fp)
 3080634:	e17ffd17 	ldw	r5,-12(fp)
 3080638:	30809bc0 	call	30809bc <i2c_write>
 308063c:	1004c03a 	cmpne	r2,r2,zero
 3080640:	1000041e 	bne	r2,zero,3080654 <I2C_Read16+0x94>
        bSuccess = FALSE;
 3080644:	e03ffa15 	stw	zero,-24(fp)
        I2C_DEBUG(("I2C HMB_E2 Fail: SubAddress NACK!\n"));
 3080648:	01008034 	movhi	r4,512
 308064c:	21000804 	addi	r4,r4,32
 3080650:	30815b40 	call	30815b4 <myprintf>
    }            
    i2c_start(clk_base, data_base);  // restart
 3080654:	e13ffc17 	ldw	r4,-16(fp)
 3080658:	e17ffd17 	ldw	r5,-12(fp)
 308065c:	30808bc0 	call	30808bc <i2c_start>
    DeviceAddr |= 1; // Read
 3080660:	e0bffe03 	ldbu	r2,-8(fp)
 3080664:	10800054 	ori	r2,r2,1
 3080668:	e0bffe05 	stb	r2,-8(fp)
    if (bSuccess && !i2c_write(clk_base, data_base, DeviceAddr)){  // send id
 308066c:	e0bffa17 	ldw	r2,-24(fp)
 3080670:	1005003a 	cmpeq	r2,r2,zero
 3080674:	10000b1e 	bne	r2,zero,30806a4 <I2C_Read16+0xe4>
 3080678:	e0bffe03 	ldbu	r2,-8(fp)
 308067c:	11803fcc 	andi	r6,r2,255
 3080680:	e13ffc17 	ldw	r4,-16(fp)
 3080684:	e17ffd17 	ldw	r5,-12(fp)
 3080688:	30809bc0 	call	30809bc <i2c_write>
 308068c:	1004c03a 	cmpne	r2,r2,zero
 3080690:	1000041e 	bne	r2,zero,30806a4 <I2C_Read16+0xe4>
        bSuccess = FALSE;
 3080694:	e03ffa15 	stw	zero,-24(fp)
        I2C_DEBUG(("I2C HMB_E2 Fail: Address+1 NACK!\n"));
 3080698:	01008034 	movhi	r4,512
 308069c:	21003404 	addi	r4,r4,208
 30806a0:	30815b40 	call	30815b4 <myprintf>
    }
    
    if (bSuccess){
 30806a4:	e0bffa17 	ldw	r2,-24(fp)
 30806a8:	1005003a 	cmpeq	r2,r2,zero
 30806ac:	1000051e 	bne	r2,zero,30806c4 <I2C_Read16+0x104>
        i2c_read(clk_base, data_base, &HighByte, TRUE);  // read
 30806b0:	e1bffb44 	addi	r6,fp,-19
 30806b4:	e13ffc17 	ldw	r4,-16(fp)
 30806b8:	e17ffd17 	ldw	r5,-12(fp)
 30806bc:	01c00044 	movi	r7,1
 30806c0:	3080b280 	call	3080b28 <i2c_read>
    }        
    if (bSuccess){
 30806c4:	e0bffa17 	ldw	r2,-24(fp)
 30806c8:	1005003a 	cmpeq	r2,r2,zero
 30806cc:	1000051e 	bne	r2,zero,30806e4 <I2C_Read16+0x124>
        i2c_read(clk_base, data_base, &LowByte, FALSE);  // read
 30806d0:	e1bffb04 	addi	r6,fp,-20
 30806d4:	e13ffc17 	ldw	r4,-16(fp)
 30806d8:	e17ffd17 	ldw	r5,-12(fp)
 30806dc:	000f883a 	mov	r7,zero
 30806e0:	3080b280 	call	3080b28 <i2c_read>
    }        
    if (bSuccess)
 30806e4:	e0bffa17 	ldw	r2,-24(fp)
 30806e8:	1005003a 	cmpeq	r2,r2,zero
 30806ec:	10000a1e 	bne	r2,zero,3080718 <I2C_Read16+0x158>
        *pControlData = (HighByte << 8) | LowByte;
 30806f0:	e0bffb43 	ldbu	r2,-19(fp)
 30806f4:	10803fcc 	andi	r2,r2,255
 30806f8:	1004923a 	slli	r2,r2,8
 30806fc:	1007883a 	mov	r3,r2
 3080700:	e0bffb03 	ldbu	r2,-20(fp)
 3080704:	10803fcc 	andi	r2,r2,255
 3080708:	1884b03a 	or	r2,r3,r2
 308070c:	1007883a 	mov	r3,r2
 3080710:	e0800217 	ldw	r2,8(fp)
 3080714:	10c0000d 	sth	r3,0(r2)
    i2c_stop(clk_base, data_base);
 3080718:	e13ffc17 	ldw	r4,-16(fp)
 308071c:	e17ffd17 	ldw	r5,-12(fp)
 3080720:	30809440 	call	3080944 <i2c_stop>
    
    return bSuccess;
 3080724:	e0bffa17 	ldw	r2,-24(fp)
}
 3080728:	e037883a 	mov	sp,fp
 308072c:	dfc00117 	ldw	ra,4(sp)
 3080730:	df000017 	ldw	fp,0(sp)
 3080734:	dec00204 	addi	sp,sp,8
 3080738:	f800283a 	ret

0308073c <I2C_MultipleRead>:


bool I2C_MultipleRead(alt_u32 clk_base, alt_u32 data_base, alt_8 DeviceAddr, alt_u8 ControlAddr, alt_u8 *pBuf, alt_u16 len){
 308073c:	defff704 	addi	sp,sp,-36
 3080740:	dfc00815 	stw	ra,32(sp)
 3080744:	df000715 	stw	fp,28(sp)
 3080748:	df000704 	addi	fp,sp,28
 308074c:	e13ffb15 	stw	r4,-20(fp)
 3080750:	e17ffc15 	stw	r5,-16(fp)
 3080754:	e0800317 	ldw	r2,12(fp)
 3080758:	e1bffd05 	stb	r6,-12(fp)
 308075c:	e1fffe05 	stb	r7,-8(fp)
 3080760:	e0bfff0d 	sth	r2,-4(fp)
    int i;
    bool bSuccess = TRUE;
 3080764:	00800044 	movi	r2,1
 3080768:	e0bff915 	stw	r2,-28(fp)
    
   
    // device id
    //DeviceAddr = HMB_E2_I2C_ID;

    i2c_start(clk_base, data_base);
 308076c:	e13ffb17 	ldw	r4,-20(fp)
 3080770:	e17ffc17 	ldw	r5,-16(fp)
 3080774:	30808bc0 	call	30808bc <i2c_start>
    if (!i2c_write(clk_base, data_base, DeviceAddr)){  // send ID
 3080778:	e0bffd03 	ldbu	r2,-12(fp)
 308077c:	11803fcc 	andi	r6,r2,255
 3080780:	e13ffb17 	ldw	r4,-20(fp)
 3080784:	e17ffc17 	ldw	r5,-16(fp)
 3080788:	30809bc0 	call	30809bc <i2c_write>
 308078c:	1004c03a 	cmpne	r2,r2,zero
 3080790:	1000041e 	bne	r2,zero,30807a4 <I2C_MultipleRead+0x68>
        bSuccess = FALSE;
 3080794:	e03ff915 	stw	zero,-28(fp)
        I2C_DEBUG(("I2C_MultipleRead(1) Fail: Address NACK!\n"));
 3080798:	01008034 	movhi	r4,512
 308079c:	21003d04 	addi	r4,r4,244
 30807a0:	30815b40 	call	30815b4 <myprintf>
    }    
    if (bSuccess && !i2c_write(clk_base, data_base, ControlAddr)){ // send sub-address
 30807a4:	e0bff917 	ldw	r2,-28(fp)
 30807a8:	1005003a 	cmpeq	r2,r2,zero
 30807ac:	10000a1e 	bne	r2,zero,30807d8 <I2C_MultipleRead+0x9c>
 30807b0:	e1bffe03 	ldbu	r6,-8(fp)
 30807b4:	e13ffb17 	ldw	r4,-20(fp)
 30807b8:	e17ffc17 	ldw	r5,-16(fp)
 30807bc:	30809bc0 	call	30809bc <i2c_write>
 30807c0:	1004c03a 	cmpne	r2,r2,zero
 30807c4:	1000041e 	bne	r2,zero,30807d8 <I2C_MultipleRead+0x9c>
        bSuccess = FALSE;
 30807c8:	e03ff915 	stw	zero,-28(fp)
        I2C_DEBUG(("I2C_MultipleRead(2) Fail: SubAddress NACK!\n"));
 30807cc:	01008034 	movhi	r4,512
 30807d0:	21004804 	addi	r4,r4,288
 30807d4:	30815b40 	call	30815b4 <myprintf>
    }    
    if (bSuccess)        
 30807d8:	e0bff917 	ldw	r2,-28(fp)
 30807dc:	1005003a 	cmpeq	r2,r2,zero
 30807e0:	1000031e 	bne	r2,zero,30807f0 <I2C_MultipleRead+0xb4>
        i2c_start(clk_base, data_base);  // restart
 30807e4:	e13ffb17 	ldw	r4,-20(fp)
 30807e8:	e17ffc17 	ldw	r5,-16(fp)
 30807ec:	30808bc0 	call	30808bc <i2c_start>
    DeviceAddr |= 1; // Read
 30807f0:	e0bffd03 	ldbu	r2,-12(fp)
 30807f4:	10800054 	ori	r2,r2,1
 30807f8:	e0bffd05 	stb	r2,-12(fp)
    if (bSuccess && !i2c_write(clk_base, data_base, DeviceAddr)){  // send id
 30807fc:	e0bff917 	ldw	r2,-28(fp)
 3080800:	1005003a 	cmpeq	r2,r2,zero
 3080804:	10000b1e 	bne	r2,zero,3080834 <I2C_MultipleRead+0xf8>
 3080808:	e0bffd03 	ldbu	r2,-12(fp)
 308080c:	11803fcc 	andi	r6,r2,255
 3080810:	e13ffb17 	ldw	r4,-20(fp)
 3080814:	e17ffc17 	ldw	r5,-16(fp)
 3080818:	30809bc0 	call	30809bc <i2c_write>
 308081c:	1004c03a 	cmpne	r2,r2,zero
 3080820:	1000041e 	bne	r2,zero,3080834 <I2C_MultipleRead+0xf8>
        bSuccess = FALSE;
 3080824:	e03ff915 	stw	zero,-28(fp)
        I2C_DEBUG(("I2C_MultipleRead(3) Fail: Address+1 NACK!\n"));
 3080828:	01008034 	movhi	r4,512
 308082c:	21005304 	addi	r4,r4,332
 3080830:	30815b40 	call	30815b4 <myprintf>
    }
    
    if (bSuccess){
 3080834:	e0bff917 	ldw	r2,-28(fp)
 3080838:	1005003a 	cmpeq	r2,r2,zero
 308083c:	1000161e 	bne	r2,zero,3080898 <I2C_MultipleRead+0x15c>
        for(i=0;i<len && bSuccess;i++){
 3080840:	e03ffa15 	stw	zero,-24(fp)
 3080844:	00000e06 	br	3080880 <I2C_MultipleRead+0x144>
            i2c_read(clk_base, data_base, pBuf, (i==(len-1))?FALSE:TRUE);  // read
 3080848:	e0bfff0b 	ldhu	r2,-4(fp)
 308084c:	10ffffc4 	addi	r3,r2,-1
 3080850:	e0bffa17 	ldw	r2,-24(fp)
 3080854:	188ec03a 	cmpne	r7,r3,r2
 3080858:	e13ffb17 	ldw	r4,-20(fp)
 308085c:	e17ffc17 	ldw	r5,-16(fp)
 3080860:	e1800217 	ldw	r6,8(fp)
 3080864:	3080b280 	call	3080b28 <i2c_read>
            pBuf++;
 3080868:	e0800217 	ldw	r2,8(fp)
 308086c:	10800044 	addi	r2,r2,1
 3080870:	e0800215 	stw	r2,8(fp)
        bSuccess = FALSE;
        I2C_DEBUG(("I2C_MultipleRead(3) Fail: Address+1 NACK!\n"));
    }
    
    if (bSuccess){
        for(i=0;i<len && bSuccess;i++){
 3080874:	e0bffa17 	ldw	r2,-24(fp)
 3080878:	10800044 	addi	r2,r2,1
 308087c:	e0bffa15 	stw	r2,-24(fp)
 3080880:	e0ffff0b 	ldhu	r3,-4(fp)
 3080884:	e0bffa17 	ldw	r2,-24(fp)
 3080888:	10c0030e 	bge	r2,r3,3080898 <I2C_MultipleRead+0x15c>
 308088c:	e0bff917 	ldw	r2,-28(fp)
 3080890:	1004c03a 	cmpne	r2,r2,zero
 3080894:	103fec1e 	bne	r2,zero,3080848 <I2C_MultipleRead+0x10c>
            i2c_read(clk_base, data_base, pBuf, (i==(len-1))?FALSE:TRUE);  // read
            pBuf++;
        }            
    }        
    i2c_stop(clk_base, data_base);
 3080898:	e13ffb17 	ldw	r4,-20(fp)
 308089c:	e17ffc17 	ldw	r5,-16(fp)
 30808a0:	30809440 	call	3080944 <i2c_stop>
    
    return bSuccess;    
 30808a4:	e0bff917 	ldw	r2,-28(fp)
    
}
 30808a8:	e037883a 	mov	sp,fp
 30808ac:	dfc00117 	ldw	ra,4(sp)
 30808b0:	df000017 	ldw	fp,0(sp)
 30808b4:	dec00204 	addi	sp,sp,8
 30808b8:	f800283a 	ret

030808bc <i2c_start>:
///////////// Interncal function (i2cXXX) body //////////////////////////////////////////////
/////////////////////////////////////////////////////////////////////////////////////////////


//SDA 1->0 while SCL=1
void i2c_start(alt_u32 clk_base, alt_u32 data_base){
 30808bc:	defffc04 	addi	sp,sp,-16
 30808c0:	dfc00315 	stw	ra,12(sp)
 30808c4:	df000215 	stw	fp,8(sp)
 30808c8:	df000204 	addi	fp,sp,8
 30808cc:	e13ffe15 	stw	r4,-8(fp)
 30808d0:	e17fff15 	stw	r5,-4(fp)
    
    // make sure it is in normal state
    SDA_DIR_OUT(data_base);  // data output enabled
 30808d4:	e0bfff17 	ldw	r2,-4(fp)
 30808d8:	10800104 	addi	r2,r2,4
 30808dc:	1007883a 	mov	r3,r2
 30808e0:	00800044 	movi	r2,1
 30808e4:	18800035 	stwio	r2,0(r3)
    
    
    
    // start condition
    SDA_HIGH(data_base); // data high
 30808e8:	e0bfff17 	ldw	r2,-4(fp)
 30808ec:	1007883a 	mov	r3,r2
 30808f0:	00800044 	movi	r2,1
 30808f4:	18800035 	stwio	r2,0(r3)
    SCL_HIGH(clk_base);
 30808f8:	e0bffe17 	ldw	r2,-8(fp)
 30808fc:	1007883a 	mov	r3,r2
 3080900:	00800044 	movi	r2,1
 3080904:	18800035 	stwio	r2,0(r3)
    SCL_DELAY;
 3080908:	01000584 	movi	r4,22
 308090c:	30802000 	call	3080200 <my_wait>
     
    SDA_LOW(data_base); // data low
 3080910:	e0bfff17 	ldw	r2,-4(fp)
 3080914:	10000035 	stwio	zero,0(r2)
    SCL_DELAY; 
 3080918:	01000584 	movi	r4,22
 308091c:	30802000 	call	3080200 <my_wait>
    SCL_LOW(clk_base); // clock low
 3080920:	e0bffe17 	ldw	r2,-8(fp)
 3080924:	10000035 	stwio	zero,0(r2)
    SCL_DELAY;
 3080928:	01000584 	movi	r4,22
 308092c:	30802000 	call	3080200 <my_wait>
}
 3080930:	e037883a 	mov	sp,fp
 3080934:	dfc00117 	ldw	ra,4(sp)
 3080938:	df000017 	ldw	fp,0(sp)
 308093c:	dec00204 	addi	sp,sp,8
 3080940:	f800283a 	ret

03080944 <i2c_stop>:

// SDA 0->1 while SCL=1
void i2c_stop(alt_u32 clk_base, alt_u32 data_base){
 3080944:	defffc04 	addi	sp,sp,-16
 3080948:	dfc00315 	stw	ra,12(sp)
 308094c:	df000215 	stw	fp,8(sp)
 3080950:	df000204 	addi	fp,sp,8
 3080954:	e13ffe15 	stw	r4,-8(fp)
 3080958:	e17fff15 	stw	r5,-4(fp)
    // assume SCL = 0
    
    SDA_DIR_OUT(data_base);  // data output enabled
 308095c:	e0bfff17 	ldw	r2,-4(fp)
 3080960:	10800104 	addi	r2,r2,4
 3080964:	1007883a 	mov	r3,r2
 3080968:	00800044 	movi	r2,1
 308096c:	18800035 	stwio	r2,0(r3)
    SDA_LOW(data_base); // Data Low
 3080970:	e0bfff17 	ldw	r2,-4(fp)
 3080974:	10000035 	stwio	zero,0(r2)
    //SCL_DELAY; 
    SCL_HIGH(clk_base);  // clock high
 3080978:	e0bffe17 	ldw	r2,-8(fp)
 308097c:	1007883a 	mov	r3,r2
 3080980:	00800044 	movi	r2,1
 3080984:	18800035 	stwio	r2,0(r3)
    SCL_DELAY; // clock high long delay
 3080988:	01000584 	movi	r4,22
 308098c:	30802000 	call	3080200 <my_wait>
    SDA_HIGH(data_base); // data high
 3080990:	e0bfff17 	ldw	r2,-4(fp)
 3080994:	1007883a 	mov	r3,r2
 3080998:	00800044 	movi	r2,1
 308099c:	18800035 	stwio	r2,0(r3)
    SCL_DELAY; // data high delay
 30809a0:	01000584 	movi	r4,22
 30809a4:	30802000 	call	3080200 <my_wait>
    

    
}
 30809a8:	e037883a 	mov	sp,fp
 30809ac:	dfc00117 	ldw	ra,4(sp)
 30809b0:	df000017 	ldw	fp,0(sp)
 30809b4:	dec00204 	addi	sp,sp,8
 30809b8:	f800283a 	ret

030809bc <i2c_write>:

bool i2c_write(alt_u32 clk_base, alt_u32 data_base, alt_u8 Data){ // return true if device response ack
 30809bc:	defff704 	addi	sp,sp,-36
 30809c0:	dfc00815 	stw	ra,32(sp)
 30809c4:	df000715 	stw	fp,28(sp)
 30809c8:	df000704 	addi	fp,sp,28
 30809cc:	e13ffd15 	stw	r4,-12(fp)
 30809d0:	e17ffe15 	stw	r5,-8(fp)
 30809d4:	e1bfff05 	stb	r6,-4(fp)
    alt_u8 Mask = 0x80;
 30809d8:	00bfe004 	movi	r2,-128
 30809dc:	e0bffc05 	stb	r2,-16(fp)
    int i;
    int w;
    
    // assume, SCL = 0
    
    SDA_DIR_OUT(data_base);  // data write mode
 30809e0:	e0bffe17 	ldw	r2,-8(fp)
 30809e4:	10800104 	addi	r2,r2,4
 30809e8:	1007883a 	mov	r3,r2
 30809ec:	00800044 	movi	r2,1
 30809f0:	18800035 	stwio	r2,0(r3)
    
    for(i=0;i<8;i++){
 30809f4:	e03ffa15 	stw	zero,-24(fp)
 30809f8:	00001f06 	br	3080a78 <i2c_write+0xbc>
        SCL_LOW(clk_base);  // new, make sure data change at clk low
 30809fc:	e0bffd17 	ldw	r2,-12(fp)
 3080a00:	10000035 	stwio	zero,0(r2)
        // output data on bus
        if (Data & Mask){ // there is a delay in this command
 3080a04:	e0ffff03 	ldbu	r3,-4(fp)
 3080a08:	e0bffc03 	ldbu	r2,-16(fp)
 3080a0c:	1884703a 	and	r2,r3,r2
 3080a10:	10803fcc 	andi	r2,r2,255
 3080a14:	1005003a 	cmpeq	r2,r2,zero
 3080a18:	1000051e 	bne	r2,zero,3080a30 <i2c_write+0x74>
            SDA_HIGH(data_base);
 3080a1c:	e0bffe17 	ldw	r2,-8(fp)
 3080a20:	1007883a 	mov	r3,r2
 3080a24:	00800044 	movi	r2,1
 3080a28:	18800035 	stwio	r2,0(r3)
 3080a2c:	00000206 	br	3080a38 <i2c_write+0x7c>
        }else{    
            SDA_LOW(data_base);
 3080a30:	e0bffe17 	ldw	r2,-8(fp)
 3080a34:	10000035 	stwio	zero,0(r2)
        }
        Mask >>= 1; // there is a delay in this command
 3080a38:	e0bffc03 	ldbu	r2,-16(fp)
 3080a3c:	1004d07a 	srli	r2,r2,1
 3080a40:	e0bffc05 	stb	r2,-16(fp)
        // clock high
        SCL_HIGH(clk_base);
 3080a44:	e0bffd17 	ldw	r2,-12(fp)
 3080a48:	1007883a 	mov	r3,r2
 3080a4c:	00800044 	movi	r2,1
 3080a50:	18800035 	stwio	r2,0(r3)
        SCL_DELAY;
 3080a54:	01000584 	movi	r4,22
 3080a58:	30802000 	call	3080200 <my_wait>
        SCL_LOW(clk_base);
 3080a5c:	e0bffd17 	ldw	r2,-12(fp)
 3080a60:	10000035 	stwio	zero,0(r2)
        SCL_DELAY;
 3080a64:	01000584 	movi	r4,22
 3080a68:	30802000 	call	3080200 <my_wait>
    
    // assume, SCL = 0
    
    SDA_DIR_OUT(data_base);  // data write mode
    
    for(i=0;i<8;i++){
 3080a6c:	e0bffa17 	ldw	r2,-24(fp)
 3080a70:	10800044 	addi	r2,r2,1
 3080a74:	e0bffa15 	stw	r2,-24(fp)
 3080a78:	e0bffa17 	ldw	r2,-24(fp)
 3080a7c:	10800210 	cmplti	r2,r2,8
 3080a80:	103fde1e 	bne	r2,zero,30809fc <i2c_write+0x40>
        SCL_LOW(clk_base);
        SCL_DELAY;
    }
    
    //===== get ack
    SDA_DIR_IN(data_base);  // data read mode
 3080a84:	e0bffe17 	ldw	r2,-8(fp)
 3080a88:	10800104 	addi	r2,r2,4
 3080a8c:	10000035 	stwio	zero,0(r2)
    //SCL_DELAY;
//------------------ wait ack for muti-touch panel
SCL_DELAY;
 3080a90:	01000584 	movi	r4,22
 3080a94:	30802000 	call	3080200 <my_wait>
w = 0;
 3080a98:	e03ff915 	stw	zero,-28(fp)
while(SDA_READ(data_base) && w++ < 1000000){
 3080a9c:	e0bffe17 	ldw	r2,-8(fp)
 3080aa0:	10800037 	ldwio	r2,0(r2)
 3080aa4:	1005003a 	cmpeq	r2,r2,zero
 3080aa8:	10000b1e 	bne	r2,zero,3080ad8 <i2c_write+0x11c>
 3080aac:	e0fff917 	ldw	r3,-28(fp)
 3080ab0:	008003f4 	movhi	r2,15
 3080ab4:	10908fc4 	addi	r2,r2,16959
 3080ab8:	10c4403a 	cmpge	r2,r2,r3
 3080abc:	1007883a 	mov	r3,r2
 3080ac0:	e0bff917 	ldw	r2,-28(fp)
 3080ac4:	10800044 	addi	r2,r2,1
 3080ac8:	e0bff915 	stw	r2,-28(fp)
 3080acc:	18803fcc 	andi	r2,r3,255
 3080ad0:	1004c03a 	cmpne	r2,r2,zero
 3080ad4:	103ff11e 	bne	r2,zero,3080a9c <i2c_write+0xe0>
}    
    // clock high
    SCL_HIGH(clk_base);  // clock high
 3080ad8:	e0bffd17 	ldw	r2,-12(fp)
 3080adc:	1007883a 	mov	r3,r2
 3080ae0:	00800044 	movi	r2,1
 3080ae4:	18800035 	stwio	r2,0(r3)
    SCL_DELAY;  // clock high delay
 3080ae8:	01000584 	movi	r4,22
 3080aec:	30802000 	call	3080200 <my_wait>
    bAck = SDA_READ(data_base)?FALSE:TRUE;  // get ack
 3080af0:	e0bffe17 	ldw	r2,-8(fp)
 3080af4:	10800037 	ldwio	r2,0(r2)
 3080af8:	1005003a 	cmpeq	r2,r2,zero
 3080afc:	e0bffb15 	stw	r2,-20(fp)
    //SCL_DELAY;
    //SDA_DIR_OUT;
    SCL_LOW(clk_base); // clock low         
 3080b00:	e0bffd17 	ldw	r2,-12(fp)
 3080b04:	10000035 	stwio	zero,0(r2)
    SCL_DELAY; // clock low delay
 3080b08:	01000584 	movi	r4,22
 3080b0c:	30802000 	call	3080200 <my_wait>
    return bAck;
 3080b10:	e0bffb17 	ldw	r2,-20(fp)
}    
 3080b14:	e037883a 	mov	sp,fp
 3080b18:	dfc00117 	ldw	ra,4(sp)
 3080b1c:	df000017 	ldw	fp,0(sp)
 3080b20:	dec00204 	addi	sp,sp,8
 3080b24:	f800283a 	ret

03080b28 <i2c_read>:

void i2c_read(alt_u32 clk_base, alt_u32 data_base, alt_u8 *pData, bool bAck){ // return true if device response ack
 3080b28:	defff804 	addi	sp,sp,-32
 3080b2c:	dfc00715 	stw	ra,28(sp)
 3080b30:	df000615 	stw	fp,24(sp)
 3080b34:	df000604 	addi	fp,sp,24
 3080b38:	e13ffc15 	stw	r4,-16(fp)
 3080b3c:	e17ffd15 	stw	r5,-12(fp)
 3080b40:	e1bffe15 	stw	r6,-8(fp)
 3080b44:	e1ffff15 	stw	r7,-4(fp)
    alt_u8 Data=0;
 3080b48:	e03ffb05 	stb	zero,-20(fp)
    int i;
    
    // assume SCL = low
    
    SDA_DIR_IN(data_base);  // set data read mode
 3080b4c:	e0bffd17 	ldw	r2,-12(fp)
 3080b50:	10800104 	addi	r2,r2,4
 3080b54:	10000035 	stwio	zero,0(r2)
    SCL_LOW(clk_base); // clock low
 3080b58:	e0bffc17 	ldw	r2,-16(fp)
 3080b5c:	10000035 	stwio	zero,0(r2)
    SCL_DELAY; // clock low delay
 3080b60:	01000584 	movi	r4,22
 3080b64:	30802000 	call	3080200 <my_wait>

    for(i=0;i<8;i++){
 3080b68:	e03ffa15 	stw	zero,-24(fp)
 3080b6c:	00001706 	br	3080bcc <i2c_read+0xa4>
        Data <<= 1;
 3080b70:	e0bffb03 	ldbu	r2,-20(fp)
 3080b74:	1085883a 	add	r2,r2,r2
 3080b78:	e0bffb05 	stb	r2,-20(fp)
        SCL_HIGH(clk_base);  // clock high
 3080b7c:	e0bffc17 	ldw	r2,-16(fp)
 3080b80:	1007883a 	mov	r3,r2
 3080b84:	00800044 	movi	r2,1
 3080b88:	18800035 	stwio	r2,0(r3)
        SCL_DELAY;
 3080b8c:	01000584 	movi	r4,22
 3080b90:	30802000 	call	3080200 <my_wait>
        if (SDA_READ(data_base))  // read data   
 3080b94:	e0bffd17 	ldw	r2,-12(fp)
 3080b98:	10800037 	ldwio	r2,0(r2)
 3080b9c:	1005003a 	cmpeq	r2,r2,zero
 3080ba0:	1000031e 	bne	r2,zero,3080bb0 <i2c_read+0x88>
            Data |= 0x01;
 3080ba4:	e0bffb03 	ldbu	r2,-20(fp)
 3080ba8:	10800054 	ori	r2,r2,1
 3080bac:	e0bffb05 	stb	r2,-20(fp)
        SCL_LOW(clk_base);  // clock log  
 3080bb0:	e0bffc17 	ldw	r2,-16(fp)
 3080bb4:	10000035 	stwio	zero,0(r2)
        SCL_DELAY;
 3080bb8:	01000584 	movi	r4,22
 3080bbc:	30802000 	call	3080200 <my_wait>
    
    SDA_DIR_IN(data_base);  // set data read mode
    SCL_LOW(clk_base); // clock low
    SCL_DELAY; // clock low delay

    for(i=0;i<8;i++){
 3080bc0:	e0bffa17 	ldw	r2,-24(fp)
 3080bc4:	10800044 	addi	r2,r2,1
 3080bc8:	e0bffa15 	stw	r2,-24(fp)
 3080bcc:	e0bffa17 	ldw	r2,-24(fp)
 3080bd0:	10800210 	cmplti	r2,r2,8
 3080bd4:	103fe61e 	bne	r2,zero,3080b70 <i2c_read+0x48>
        SCL_LOW(clk_base);  // clock log  
        SCL_DELAY;
    }
    
    // send ACK
    SCL_LOW(clk_base);  // new, make sure data change at clk low
 3080bd8:	e0bffc17 	ldw	r2,-16(fp)
 3080bdc:	10000035 	stwio	zero,0(r2)
    SDA_DIR_OUT(data_base);  // set data write mode
 3080be0:	e0bffd17 	ldw	r2,-12(fp)
 3080be4:	10800104 	addi	r2,r2,4
 3080be8:	1007883a 	mov	r3,r2
 3080bec:	00800044 	movi	r2,1
 3080bf0:	18800035 	stwio	r2,0(r3)
    if (bAck)
 3080bf4:	e0bfff17 	ldw	r2,-4(fp)
 3080bf8:	1005003a 	cmpeq	r2,r2,zero
 3080bfc:	1000031e 	bne	r2,zero,3080c0c <i2c_read+0xe4>
        SDA_LOW(data_base);
 3080c00:	e0bffd17 	ldw	r2,-12(fp)
 3080c04:	10000035 	stwio	zero,0(r2)
 3080c08:	00000406 	br	3080c1c <i2c_read+0xf4>
    else
        SDA_HIGH(data_base);
 3080c0c:	e0bffd17 	ldw	r2,-12(fp)
 3080c10:	1007883a 	mov	r3,r2
 3080c14:	00800044 	movi	r2,1
 3080c18:	18800035 	stwio	r2,0(r3)
    SCL_HIGH(clk_base); // clock high
 3080c1c:	e0bffc17 	ldw	r2,-16(fp)
 3080c20:	1007883a 	mov	r3,r2
 3080c24:	00800044 	movi	r2,1
 3080c28:	18800035 	stwio	r2,0(r3)
    SCL_DELAY; // clock high  delay
 3080c2c:	01000584 	movi	r4,22
 3080c30:	30802000 	call	3080200 <my_wait>
    SCL_LOW(clk_base); // clock low
 3080c34:	e0bffc17 	ldw	r2,-16(fp)
 3080c38:	10000035 	stwio	zero,0(r2)
    SCL_DELAY; // clock low delay
 3080c3c:	01000584 	movi	r4,22
 3080c40:	30802000 	call	3080200 <my_wait>
    SDA_LOW(data_base);  // data low
 3080c44:	e0bffd17 	ldw	r2,-12(fp)
 3080c48:	10000035 	stwio	zero,0(r2)
    SCL_DELAY; // data low delay
 3080c4c:	01000584 	movi	r4,22
 3080c50:	30802000 	call	3080200 <my_wait>
//    SDA_DIR_IN;  // set data read mode
    
    *pData = Data;
 3080c54:	e0fffe17 	ldw	r3,-8(fp)
 3080c58:	e0bffb03 	ldbu	r2,-20(fp)
 3080c5c:	18800005 	stb	r2,0(r3)
}
 3080c60:	e037883a 	mov	sp,fp
 3080c64:	dfc00117 	ldw	ra,4(sp)
 3080c68:	df000017 	ldw	fp,0(sp)
 3080c6c:	dec00204 	addi	sp,sp,8
 3080c70:	f800283a 	ret

03080c74 <I2CL_Write>:

////////////////////////////////////////////////////////////////
////////////////////////////////////////////////////////////////
////////////////////////////////////////////////////////////////
// size > 2Kbits
bool I2CL_Write(alt_u32 clk_base, alt_u32 data_base, alt_8 DeviceAddr, alt_u16 ControlAddr, alt_u8 ControlData){
 3080c74:	defff704 	addi	sp,sp,-36
 3080c78:	dfc00815 	stw	ra,32(sp)
 3080c7c:	df000715 	stw	fp,28(sp)
 3080c80:	df000704 	addi	fp,sp,28
 3080c84:	e13ffb15 	stw	r4,-20(fp)
 3080c88:	e17ffc15 	stw	r5,-16(fp)
 3080c8c:	e0800217 	ldw	r2,8(fp)
 3080c90:	e1bffd05 	stb	r6,-12(fp)
 3080c94:	e1fffe0d 	sth	r7,-8(fp)
 3080c98:	e0bfff05 	stb	r2,-4(fp)
    bool bSuccess = TRUE;
 3080c9c:	00800044 	movi	r2,1
 3080ca0:	e0bffa15 	stw	r2,-24(fp)
    alt_u8 AddrHigh, AddrLow;
    
    AddrHigh = (ControlAddr >> 8) & 0xFF; 
 3080ca4:	e0bffe0b 	ldhu	r2,-8(fp)
 3080ca8:	1004d23a 	srli	r2,r2,8
 3080cac:	1007883a 	mov	r3,r2
 3080cb0:	00bfffc4 	movi	r2,-1
 3080cb4:	1884703a 	and	r2,r3,r2
 3080cb8:	e0bff945 	stb	r2,-27(fp)
    AddrLow  = ControlAddr & 0xFF; 
 3080cbc:	e0bffe0b 	ldhu	r2,-8(fp)
 3080cc0:	1007883a 	mov	r3,r2
 3080cc4:	00bfffc4 	movi	r2,-1
 3080cc8:	1884703a 	and	r2,r3,r2
 3080ccc:	e0bff905 	stb	r2,-28(fp)
    
    // device id
    //DeviceAddr = HMB_E2_I2C_ID;

    i2c_start(clk_base, data_base);
 3080cd0:	e13ffb17 	ldw	r4,-20(fp)
 3080cd4:	e17ffc17 	ldw	r5,-16(fp)
 3080cd8:	30808bc0 	call	30808bc <i2c_start>
    if (!i2c_write(clk_base, data_base, DeviceAddr)){  // send ID
 3080cdc:	e0bffd03 	ldbu	r2,-12(fp)
 3080ce0:	11803fcc 	andi	r6,r2,255
 3080ce4:	e13ffb17 	ldw	r4,-20(fp)
 3080ce8:	e17ffc17 	ldw	r5,-16(fp)
 3080cec:	30809bc0 	call	30809bc <i2c_write>
 3080cf0:	1004c03a 	cmpne	r2,r2,zero
 3080cf4:	1000041e 	bne	r2,zero,3080d08 <I2CL_Write+0x94>
        bSuccess = FALSE;
 3080cf8:	e03ffa15 	stw	zero,-24(fp)
        I2C_DEBUG(("I2C HMB_E2 Fail: Address NACK!\n"));
 3080cfc:	01008034 	movhi	r4,512
 3080d00:	21000004 	addi	r4,r4,0
 3080d04:	30815b40 	call	30815b4 <myprintf>
    }
    if (bSuccess && !i2c_write(clk_base, data_base, AddrHigh)){ // send sub-address
 3080d08:	e0bffa17 	ldw	r2,-24(fp)
 3080d0c:	1005003a 	cmpeq	r2,r2,zero
 3080d10:	10000a1e 	bne	r2,zero,3080d3c <I2CL_Write+0xc8>
 3080d14:	e1bff943 	ldbu	r6,-27(fp)
 3080d18:	e13ffb17 	ldw	r4,-20(fp)
 3080d1c:	e17ffc17 	ldw	r5,-16(fp)
 3080d20:	30809bc0 	call	30809bc <i2c_write>
 3080d24:	1004c03a 	cmpne	r2,r2,zero
 3080d28:	1000041e 	bne	r2,zero,3080d3c <I2CL_Write+0xc8>
        bSuccess = FALSE;
 3080d2c:	e03ffa15 	stw	zero,-24(fp)
        I2C_DEBUG(("I2C HMB_E2 Fail: SubAddress-high NACK!\n"));
 3080d30:	01008034 	movhi	r4,512
 3080d34:	21005e04 	addi	r4,r4,376
 3080d38:	30815b40 	call	30815b4 <myprintf>
    }            
    if (bSuccess && !i2c_write(clk_base, data_base, AddrLow)){ // send sub-address
 3080d3c:	e0bffa17 	ldw	r2,-24(fp)
 3080d40:	1005003a 	cmpeq	r2,r2,zero
 3080d44:	10000a1e 	bne	r2,zero,3080d70 <I2CL_Write+0xfc>
 3080d48:	e1bff903 	ldbu	r6,-28(fp)
 3080d4c:	e13ffb17 	ldw	r4,-20(fp)
 3080d50:	e17ffc17 	ldw	r5,-16(fp)
 3080d54:	30809bc0 	call	30809bc <i2c_write>
 3080d58:	1004c03a 	cmpne	r2,r2,zero
 3080d5c:	1000041e 	bne	r2,zero,3080d70 <I2CL_Write+0xfc>
        bSuccess = FALSE;
 3080d60:	e03ffa15 	stw	zero,-24(fp)
        I2C_DEBUG(("I2C HMB_E2 Fail: SubAddress-low NACK!\n"));
 3080d64:	01008034 	movhi	r4,512
 3080d68:	21006804 	addi	r4,r4,416
 3080d6c:	30815b40 	call	30815b4 <myprintf>
    }            
    if (bSuccess && !i2c_write(clk_base, data_base, ControlData)){  
 3080d70:	e0bffa17 	ldw	r2,-24(fp)
 3080d74:	1005003a 	cmpeq	r2,r2,zero
 3080d78:	10000a1e 	bne	r2,zero,3080da4 <I2CL_Write+0x130>
 3080d7c:	e1bfff03 	ldbu	r6,-4(fp)
 3080d80:	e13ffb17 	ldw	r4,-20(fp)
 3080d84:	e17ffc17 	ldw	r5,-16(fp)
 3080d88:	30809bc0 	call	30809bc <i2c_write>
 3080d8c:	1004c03a 	cmpne	r2,r2,zero
 3080d90:	1000041e 	bne	r2,zero,3080da4 <I2CL_Write+0x130>
        bSuccess = FALSE;
 3080d94:	e03ffa15 	stw	zero,-24(fp)
        I2C_DEBUG(("I2C HMB_E2 Fail: write NACK!\n"));
 3080d98:	01008034 	movhi	r4,512
 3080d9c:	21001104 	addi	r4,r4,68
 3080da0:	30815b40 	call	30815b4 <myprintf>
    }
    i2c_stop(clk_base, data_base);
 3080da4:	e13ffb17 	ldw	r4,-20(fp)
 3080da8:	e17ffc17 	ldw	r5,-16(fp)
 3080dac:	30809440 	call	3080944 <i2c_stop>
    
    usleep(7*1000); // delay to wait EE2 ready (at least 5 ms delay is required)
 3080db0:	0106d604 	movi	r4,7000
 3080db4:	30963040 	call	3096304 <usleep>
    
    return bSuccess;
 3080db8:	e0bffa17 	ldw	r2,-24(fp)
    
}
 3080dbc:	e037883a 	mov	sp,fp
 3080dc0:	dfc00117 	ldw	ra,4(sp)
 3080dc4:	df000017 	ldw	fp,0(sp)
 3080dc8:	dec00204 	addi	sp,sp,8
 3080dcc:	f800283a 	ret

03080dd0 <I2CL_Read>:

bool I2CL_Read(alt_u32 clk_base, alt_u32 data_base, alt_8 DeviceAddr, alt_u16 ControlAddr, alt_u8 *pControlData){
 3080dd0:	defff804 	addi	sp,sp,-32
 3080dd4:	dfc00715 	stw	ra,28(sp)
 3080dd8:	df000615 	stw	fp,24(sp)
 3080ddc:	df000604 	addi	fp,sp,24
 3080de0:	e13ffc15 	stw	r4,-16(fp)
 3080de4:	e17ffd15 	stw	r5,-12(fp)
 3080de8:	e1bffe05 	stb	r6,-8(fp)
 3080dec:	e1ffff0d 	sth	r7,-4(fp)
    bool bSuccess = TRUE;
 3080df0:	00800044 	movi	r2,1
 3080df4:	e0bffb15 	stw	r2,-20(fp)
    alt_u8 AddrHigh, AddrLow;
    
    AddrHigh = (ControlAddr >> 8) & 0xFF; 
 3080df8:	e0bfff0b 	ldhu	r2,-4(fp)
 3080dfc:	1004d23a 	srli	r2,r2,8
 3080e00:	1007883a 	mov	r3,r2
 3080e04:	00bfffc4 	movi	r2,-1
 3080e08:	1884703a 	and	r2,r3,r2
 3080e0c:	e0bffa45 	stb	r2,-23(fp)
    AddrLow  = ControlAddr & 0xFF; 
 3080e10:	e0bfff0b 	ldhu	r2,-4(fp)
 3080e14:	1007883a 	mov	r3,r2
 3080e18:	00bfffc4 	movi	r2,-1
 3080e1c:	1884703a 	and	r2,r3,r2
 3080e20:	e0bffa05 	stb	r2,-24(fp)

    i2c_start(clk_base, data_base);
 3080e24:	e13ffc17 	ldw	r4,-16(fp)
 3080e28:	e17ffd17 	ldw	r5,-12(fp)
 3080e2c:	30808bc0 	call	30808bc <i2c_start>
    if (!i2c_write(clk_base, data_base, DeviceAddr)){  // send ID
 3080e30:	e0bffe03 	ldbu	r2,-8(fp)
 3080e34:	11803fcc 	andi	r6,r2,255
 3080e38:	e13ffc17 	ldw	r4,-16(fp)
 3080e3c:	e17ffd17 	ldw	r5,-12(fp)
 3080e40:	30809bc0 	call	30809bc <i2c_write>
 3080e44:	1004c03a 	cmpne	r2,r2,zero
 3080e48:	1000041e 	bne	r2,zero,3080e5c <I2CL_Read+0x8c>
        bSuccess = FALSE;
 3080e4c:	e03ffb15 	stw	zero,-20(fp)
        I2C_DEBUG(("I2C HMB_E2 Fail: Address NACK!\n"));
 3080e50:	01008034 	movhi	r4,512
 3080e54:	21000004 	addi	r4,r4,0
 3080e58:	30815b40 	call	30815b4 <myprintf>
    }
    if (bSuccess && !i2c_write(clk_base, data_base, AddrHigh)){ // send sub-address
 3080e5c:	e0bffb17 	ldw	r2,-20(fp)
 3080e60:	1005003a 	cmpeq	r2,r2,zero
 3080e64:	10000a1e 	bne	r2,zero,3080e90 <I2CL_Read+0xc0>
 3080e68:	e1bffa43 	ldbu	r6,-23(fp)
 3080e6c:	e13ffc17 	ldw	r4,-16(fp)
 3080e70:	e17ffd17 	ldw	r5,-12(fp)
 3080e74:	30809bc0 	call	30809bc <i2c_write>
 3080e78:	1004c03a 	cmpne	r2,r2,zero
 3080e7c:	1000041e 	bne	r2,zero,3080e90 <I2CL_Read+0xc0>
        bSuccess = FALSE;
 3080e80:	e03ffb15 	stw	zero,-20(fp)
        I2C_DEBUG(("I2C HMB_E2 Fail: SubAddress-high NACK!\n"));
 3080e84:	01008034 	movhi	r4,512
 3080e88:	21005e04 	addi	r4,r4,376
 3080e8c:	30815b40 	call	30815b4 <myprintf>
    }            
    if (bSuccess && !i2c_write(clk_base, data_base, AddrLow)){ // send sub-address
 3080e90:	e0bffb17 	ldw	r2,-20(fp)
 3080e94:	1005003a 	cmpeq	r2,r2,zero
 3080e98:	10000a1e 	bne	r2,zero,3080ec4 <I2CL_Read+0xf4>
 3080e9c:	e1bffa03 	ldbu	r6,-24(fp)
 3080ea0:	e13ffc17 	ldw	r4,-16(fp)
 3080ea4:	e17ffd17 	ldw	r5,-12(fp)
 3080ea8:	30809bc0 	call	30809bc <i2c_write>
 3080eac:	1004c03a 	cmpne	r2,r2,zero
 3080eb0:	1000041e 	bne	r2,zero,3080ec4 <I2CL_Read+0xf4>
        bSuccess = FALSE;
 3080eb4:	e03ffb15 	stw	zero,-20(fp)
        I2C_DEBUG(("I2C HMB_E2 Fail: SubAddress-low NACK!\n"));
 3080eb8:	01008034 	movhi	r4,512
 3080ebc:	21006804 	addi	r4,r4,416
 3080ec0:	30815b40 	call	30815b4 <myprintf>
    }            
    i2c_start(clk_base, data_base);  // restart
 3080ec4:	e13ffc17 	ldw	r4,-16(fp)
 3080ec8:	e17ffd17 	ldw	r5,-12(fp)
 3080ecc:	30808bc0 	call	30808bc <i2c_start>
    DeviceAddr |= 1; // Read
 3080ed0:	e0bffe03 	ldbu	r2,-8(fp)
 3080ed4:	10800054 	ori	r2,r2,1
 3080ed8:	e0bffe05 	stb	r2,-8(fp)
    if (bSuccess && !i2c_write(clk_base, data_base, DeviceAddr)){  // send id
 3080edc:	e0bffb17 	ldw	r2,-20(fp)
 3080ee0:	1005003a 	cmpeq	r2,r2,zero
 3080ee4:	10000b1e 	bne	r2,zero,3080f14 <I2CL_Read+0x144>
 3080ee8:	e0bffe03 	ldbu	r2,-8(fp)
 3080eec:	11803fcc 	andi	r6,r2,255
 3080ef0:	e13ffc17 	ldw	r4,-16(fp)
 3080ef4:	e17ffd17 	ldw	r5,-12(fp)
 3080ef8:	30809bc0 	call	30809bc <i2c_write>
 3080efc:	1004c03a 	cmpne	r2,r2,zero
 3080f00:	1000041e 	bne	r2,zero,3080f14 <I2CL_Read+0x144>
        bSuccess = FALSE;
 3080f04:	e03ffb15 	stw	zero,-20(fp)
        I2C_DEBUG(("I2C HMB_E2 Fail: Address+1 NACK!\n"));
 3080f08:	01008034 	movhi	r4,512
 3080f0c:	21003404 	addi	r4,r4,208
 3080f10:	30815b40 	call	30815b4 <myprintf>
    }
    
    if (bSuccess){
 3080f14:	e0bffb17 	ldw	r2,-20(fp)
 3080f18:	1005003a 	cmpeq	r2,r2,zero
 3080f1c:	1000051e 	bne	r2,zero,3080f34 <I2CL_Read+0x164>
        i2c_read(clk_base, data_base, pControlData, FALSE);  // read
 3080f20:	e13ffc17 	ldw	r4,-16(fp)
 3080f24:	e17ffd17 	ldw	r5,-12(fp)
 3080f28:	e1800217 	ldw	r6,8(fp)
 3080f2c:	000f883a 	mov	r7,zero
 3080f30:	3080b280 	call	3080b28 <i2c_read>
    }        
    i2c_stop(clk_base, data_base);
 3080f34:	e13ffc17 	ldw	r4,-16(fp)
 3080f38:	e17ffd17 	ldw	r5,-12(fp)
 3080f3c:	30809440 	call	3080944 <i2c_stop>
    
    return bSuccess;    
 3080f40:	e0bffb17 	ldw	r2,-20(fp)
}
 3080f44:	e037883a 	mov	sp,fp
 3080f48:	dfc00117 	ldw	ra,4(sp)
 3080f4c:	df000017 	ldw	fp,0(sp)
 3080f50:	dec00204 	addi	sp,sp,8
 3080f54:	f800283a 	ret

03080f58 <I2CL_MultipleRead>:

// read from address 0
bool I2CL_MultipleRead(alt_u32 clk_base, alt_u32 data_base, alt_8 DeviceAddr, alt_u16 ControlAddr, alt_u8 szData[], alt_u16 len){
 3080f58:	defff604 	addi	sp,sp,-40
 3080f5c:	dfc00915 	stw	ra,36(sp)
 3080f60:	df000815 	stw	fp,32(sp)
 3080f64:	df000804 	addi	fp,sp,32
 3080f68:	e13ffb15 	stw	r4,-20(fp)
 3080f6c:	e17ffc15 	stw	r5,-16(fp)
 3080f70:	e0800317 	ldw	r2,12(fp)
 3080f74:	e1bffd05 	stb	r6,-12(fp)
 3080f78:	e1fffe0d 	sth	r7,-8(fp)
 3080f7c:	e0bfff0d 	sth	r2,-4(fp)
    int i;
    bool bSuccess = TRUE;
 3080f80:	00800044 	movi	r2,1
 3080f84:	e0bff915 	stw	r2,-28(fp)
  // alt_u8 ControlAddr = 0;
    alt_u8 AddrHigh, AddrLow;
    
    AddrHigh = (ControlAddr >> 8) & 0xFF; 
 3080f88:	e0bffe0b 	ldhu	r2,-8(fp)
 3080f8c:	1004d23a 	srli	r2,r2,8
 3080f90:	1007883a 	mov	r3,r2
 3080f94:	00bfffc4 	movi	r2,-1
 3080f98:	1884703a 	and	r2,r3,r2
 3080f9c:	e0bff845 	stb	r2,-31(fp)
    AddrLow  = ControlAddr & 0xFF;     
 3080fa0:	e0bffe0b 	ldhu	r2,-8(fp)
 3080fa4:	1007883a 	mov	r3,r2
 3080fa8:	00bfffc4 	movi	r2,-1
 3080fac:	1884703a 	and	r2,r3,r2
 3080fb0:	e0bff805 	stb	r2,-32(fp)
    
   
    // device id
    //DeviceAddr = HMB_E2_I2C_ID;

    i2c_start(clk_base, data_base);
 3080fb4:	e13ffb17 	ldw	r4,-20(fp)
 3080fb8:	e17ffc17 	ldw	r5,-16(fp)
 3080fbc:	30808bc0 	call	30808bc <i2c_start>
    if (!i2c_write(clk_base, data_base, DeviceAddr)){  // send ID
 3080fc0:	e0bffd03 	ldbu	r2,-12(fp)
 3080fc4:	11803fcc 	andi	r6,r2,255
 3080fc8:	e13ffb17 	ldw	r4,-20(fp)
 3080fcc:	e17ffc17 	ldw	r5,-16(fp)
 3080fd0:	30809bc0 	call	30809bc <i2c_write>
 3080fd4:	1004c03a 	cmpne	r2,r2,zero
 3080fd8:	1000041e 	bne	r2,zero,3080fec <I2CL_MultipleRead+0x94>
        bSuccess = FALSE;
 3080fdc:	e03ff915 	stw	zero,-28(fp)
        I2C_DEBUG(("I2C HMB_E2 Fail: Address NACK!\n"));
 3080fe0:	01008034 	movhi	r4,512
 3080fe4:	21000004 	addi	r4,r4,0
 3080fe8:	30815b40 	call	30815b4 <myprintf>
    }
    if (bSuccess && !i2c_write(clk_base, data_base, AddrHigh)){ // send sub-address
 3080fec:	e0bff917 	ldw	r2,-28(fp)
 3080ff0:	1005003a 	cmpeq	r2,r2,zero
 3080ff4:	10000a1e 	bne	r2,zero,3081020 <I2CL_MultipleRead+0xc8>
 3080ff8:	e1bff843 	ldbu	r6,-31(fp)
 3080ffc:	e13ffb17 	ldw	r4,-20(fp)
 3081000:	e17ffc17 	ldw	r5,-16(fp)
 3081004:	30809bc0 	call	30809bc <i2c_write>
 3081008:	1004c03a 	cmpne	r2,r2,zero
 308100c:	1000041e 	bne	r2,zero,3081020 <I2CL_MultipleRead+0xc8>
        bSuccess = FALSE;
 3081010:	e03ff915 	stw	zero,-28(fp)
        I2C_DEBUG(("I2C HMB_E2 Fail: SubAddress-high NACK!\n"));
 3081014:	01008034 	movhi	r4,512
 3081018:	21005e04 	addi	r4,r4,376
 308101c:	30815b40 	call	30815b4 <myprintf>
    }    
    if (bSuccess && !i2c_write(clk_base, data_base, AddrLow)){ // send sub-address
 3081020:	e0bff917 	ldw	r2,-28(fp)
 3081024:	1005003a 	cmpeq	r2,r2,zero
 3081028:	10000a1e 	bne	r2,zero,3081054 <I2CL_MultipleRead+0xfc>
 308102c:	e1bff803 	ldbu	r6,-32(fp)
 3081030:	e13ffb17 	ldw	r4,-20(fp)
 3081034:	e17ffc17 	ldw	r5,-16(fp)
 3081038:	30809bc0 	call	30809bc <i2c_write>
 308103c:	1004c03a 	cmpne	r2,r2,zero
 3081040:	1000041e 	bne	r2,zero,3081054 <I2CL_MultipleRead+0xfc>
        bSuccess = FALSE;
 3081044:	e03ff915 	stw	zero,-28(fp)
        I2C_DEBUG(("I2C HMB_E2 Fail: SubAddress-low NACK!\n"));
 3081048:	01008034 	movhi	r4,512
 308104c:	21006804 	addi	r4,r4,416
 3081050:	30815b40 	call	30815b4 <myprintf>
    }    
    if (bSuccess)        
 3081054:	e0bff917 	ldw	r2,-28(fp)
 3081058:	1005003a 	cmpeq	r2,r2,zero
 308105c:	1000031e 	bne	r2,zero,308106c <I2CL_MultipleRead+0x114>
        i2c_start(clk_base, data_base);  // restart
 3081060:	e13ffb17 	ldw	r4,-20(fp)
 3081064:	e17ffc17 	ldw	r5,-16(fp)
 3081068:	30808bc0 	call	30808bc <i2c_start>
    DeviceAddr |= 1; // Read
 308106c:	e0bffd03 	ldbu	r2,-12(fp)
 3081070:	10800054 	ori	r2,r2,1
 3081074:	e0bffd05 	stb	r2,-12(fp)
    if (bSuccess && !i2c_write(clk_base, data_base, DeviceAddr)){  // send id
 3081078:	e0bff917 	ldw	r2,-28(fp)
 308107c:	1005003a 	cmpeq	r2,r2,zero
 3081080:	10000b1e 	bne	r2,zero,30810b0 <I2CL_MultipleRead+0x158>
 3081084:	e0bffd03 	ldbu	r2,-12(fp)
 3081088:	11803fcc 	andi	r6,r2,255
 308108c:	e13ffb17 	ldw	r4,-20(fp)
 3081090:	e17ffc17 	ldw	r5,-16(fp)
 3081094:	30809bc0 	call	30809bc <i2c_write>
 3081098:	1004c03a 	cmpne	r2,r2,zero
 308109c:	1000041e 	bne	r2,zero,30810b0 <I2CL_MultipleRead+0x158>
        bSuccess = FALSE;
 30810a0:	e03ff915 	stw	zero,-28(fp)
        I2C_DEBUG(("I2CL_MultipleRead Fail: Address+1 NACK!\n"));
 30810a4:	01008034 	movhi	r4,512
 30810a8:	21007204 	addi	r4,r4,456
 30810ac:	30815b40 	call	30815b4 <myprintf>
    }
    
    if (bSuccess){
 30810b0:	e0bff917 	ldw	r2,-28(fp)
 30810b4:	1005003a 	cmpeq	r2,r2,zero
 30810b8:	1000161e 	bne	r2,zero,3081114 <I2CL_MultipleRead+0x1bc>
        for(i=0;i<len && bSuccess;i++){
 30810bc:	e03ffa15 	stw	zero,-24(fp)
 30810c0:	00000e06 	br	30810fc <I2CL_MultipleRead+0x1a4>
            i2c_read(clk_base, data_base, &szData[i], (i==(len-1))?FALSE:TRUE);  // read
 30810c4:	e0bffa17 	ldw	r2,-24(fp)
 30810c8:	1007883a 	mov	r3,r2
 30810cc:	e0800217 	ldw	r2,8(fp)
 30810d0:	188d883a 	add	r6,r3,r2
 30810d4:	e0bfff0b 	ldhu	r2,-4(fp)
 30810d8:	10ffffc4 	addi	r3,r2,-1
 30810dc:	e0bffa17 	ldw	r2,-24(fp)
 30810e0:	188ec03a 	cmpne	r7,r3,r2
 30810e4:	e13ffb17 	ldw	r4,-20(fp)
 30810e8:	e17ffc17 	ldw	r5,-16(fp)
 30810ec:	3080b280 	call	3080b28 <i2c_read>
        bSuccess = FALSE;
        I2C_DEBUG(("I2CL_MultipleRead Fail: Address+1 NACK!\n"));
    }
    
    if (bSuccess){
        for(i=0;i<len && bSuccess;i++){
 30810f0:	e0bffa17 	ldw	r2,-24(fp)
 30810f4:	10800044 	addi	r2,r2,1
 30810f8:	e0bffa15 	stw	r2,-24(fp)
 30810fc:	e0ffff0b 	ldhu	r3,-4(fp)
 3081100:	e0bffa17 	ldw	r2,-24(fp)
 3081104:	10c0030e 	bge	r2,r3,3081114 <I2CL_MultipleRead+0x1bc>
 3081108:	e0bff917 	ldw	r2,-28(fp)
 308110c:	1004c03a 	cmpne	r2,r2,zero
 3081110:	103fec1e 	bne	r2,zero,30810c4 <I2CL_MultipleRead+0x16c>
            i2c_read(clk_base, data_base, &szData[i], (i==(len-1))?FALSE:TRUE);  // read
        }            
    }        
    i2c_stop(clk_base, data_base);
 3081114:	e13ffb17 	ldw	r4,-20(fp)
 3081118:	e17ffc17 	ldw	r5,-16(fp)
 308111c:	30809440 	call	3080944 <i2c_stop>
    
    return bSuccess;    
 3081120:	e0bff917 	ldw	r2,-28(fp)
    
} 
 3081124:	e037883a 	mov	sp,fp
 3081128:	dfc00117 	ldw	ra,4(sp)
 308112c:	df000017 	ldw	fp,0(sp)
 3081130:	dec00204 	addi	sp,sp,8
 3081134:	f800283a 	ret

03081138 <I2CL_MultipleWrite>:



bool I2CL_MultipleWrite(alt_u32 clk_base, alt_u32 data_base, alt_8 DeviceAddr, alt_u16 ControlAddr, alt_u8 szData[], alt_u16 len){
 3081138:	defff604 	addi	sp,sp,-40
 308113c:	dfc00915 	stw	ra,36(sp)
 3081140:	df000815 	stw	fp,32(sp)
 3081144:	df000804 	addi	fp,sp,32
 3081148:	e13ffb15 	stw	r4,-20(fp)
 308114c:	e17ffc15 	stw	r5,-16(fp)
 3081150:	e0800317 	ldw	r2,12(fp)
 3081154:	e1bffd05 	stb	r6,-12(fp)
 3081158:	e1fffe0d 	sth	r7,-8(fp)
 308115c:	e0bfff0d 	sth	r2,-4(fp)
    bool bSuccess = TRUE;
 3081160:	00800044 	movi	r2,1
 3081164:	e0bffa15 	stw	r2,-24(fp)
    alt_u8 AddrHigh, AddrLow;
    int i;
    
    AddrHigh = (ControlAddr >> 8) & 0xFF; 
 3081168:	e0bffe0b 	ldhu	r2,-8(fp)
 308116c:	1004d23a 	srli	r2,r2,8
 3081170:	1007883a 	mov	r3,r2
 3081174:	00bfffc4 	movi	r2,-1
 3081178:	1884703a 	and	r2,r3,r2
 308117c:	e0bff945 	stb	r2,-27(fp)
    AddrLow  = ControlAddr & 0xFF; 
 3081180:	e0bffe0b 	ldhu	r2,-8(fp)
 3081184:	1007883a 	mov	r3,r2
 3081188:	00bfffc4 	movi	r2,-1
 308118c:	1884703a 	and	r2,r3,r2
 3081190:	e0bff905 	stb	r2,-28(fp)
    

    i2c_start(clk_base, data_base);
 3081194:	e13ffb17 	ldw	r4,-20(fp)
 3081198:	e17ffc17 	ldw	r5,-16(fp)
 308119c:	30808bc0 	call	30808bc <i2c_start>
    if (!i2c_write(clk_base, data_base, DeviceAddr)){  // send ID
 30811a0:	e0bffd03 	ldbu	r2,-12(fp)
 30811a4:	11803fcc 	andi	r6,r2,255
 30811a8:	e13ffb17 	ldw	r4,-20(fp)
 30811ac:	e17ffc17 	ldw	r5,-16(fp)
 30811b0:	30809bc0 	call	30809bc <i2c_write>
 30811b4:	1004c03a 	cmpne	r2,r2,zero
 30811b8:	1000041e 	bne	r2,zero,30811cc <I2CL_MultipleWrite+0x94>
        bSuccess = FALSE;
 30811bc:	e03ffa15 	stw	zero,-24(fp)
        I2C_DEBUG(("I2C HMB_E2 Fail: Address NACK!\n"));
 30811c0:	01008034 	movhi	r4,512
 30811c4:	21000004 	addi	r4,r4,0
 30811c8:	30815b40 	call	30815b4 <myprintf>
    }
    if (bSuccess && !i2c_write(clk_base, data_base, AddrHigh)){ // send sub-address
 30811cc:	e0bffa17 	ldw	r2,-24(fp)
 30811d0:	1005003a 	cmpeq	r2,r2,zero
 30811d4:	10000a1e 	bne	r2,zero,3081200 <I2CL_MultipleWrite+0xc8>
 30811d8:	e1bff943 	ldbu	r6,-27(fp)
 30811dc:	e13ffb17 	ldw	r4,-20(fp)
 30811e0:	e17ffc17 	ldw	r5,-16(fp)
 30811e4:	30809bc0 	call	30809bc <i2c_write>
 30811e8:	1004c03a 	cmpne	r2,r2,zero
 30811ec:	1000041e 	bne	r2,zero,3081200 <I2CL_MultipleWrite+0xc8>
        bSuccess = FALSE;
 30811f0:	e03ffa15 	stw	zero,-24(fp)
        I2C_DEBUG(("I2C HMB_E2 Fail: SubAddress-high NACK!\n"));
 30811f4:	01008034 	movhi	r4,512
 30811f8:	21005e04 	addi	r4,r4,376
 30811fc:	30815b40 	call	30815b4 <myprintf>
    }            
    if (bSuccess && !i2c_write(clk_base, data_base, AddrLow)){ // send sub-address
 3081200:	e0bffa17 	ldw	r2,-24(fp)
 3081204:	1005003a 	cmpeq	r2,r2,zero
 3081208:	10000a1e 	bne	r2,zero,3081234 <I2CL_MultipleWrite+0xfc>
 308120c:	e1bff903 	ldbu	r6,-28(fp)
 3081210:	e13ffb17 	ldw	r4,-20(fp)
 3081214:	e17ffc17 	ldw	r5,-16(fp)
 3081218:	30809bc0 	call	30809bc <i2c_write>
 308121c:	1004c03a 	cmpne	r2,r2,zero
 3081220:	1000041e 	bne	r2,zero,3081234 <I2CL_MultipleWrite+0xfc>
        bSuccess = FALSE;
 3081224:	e03ffa15 	stw	zero,-24(fp)
        I2C_DEBUG(("I2C HMB_E2 Fail: SubAddress-low NACK!\n"));
 3081228:	01008034 	movhi	r4,512
 308122c:	21006804 	addi	r4,r4,416
 3081230:	30815b40 	call	30815b4 <myprintf>
    }            
    if (bSuccess){// && !i2c_write(clk_base, data_base, ControlData)){
 3081234:	e0bffa17 	ldw	r2,-24(fp)
 3081238:	1005003a 	cmpeq	r2,r2,zero
 308123c:	10001b1e 	bne	r2,zero,30812ac <I2CL_MultipleWrite+0x174>
        for(i=0;i<len && bSuccess;i++){
 3081240:	e03ff815 	stw	zero,-32(fp)
 3081244:	00000d06 	br	308127c <I2CL_MultipleWrite+0x144>
            bSuccess = i2c_write(clk_base, data_base, szData[i]);
 3081248:	e0bff817 	ldw	r2,-32(fp)
 308124c:	1007883a 	mov	r3,r2
 3081250:	e0800217 	ldw	r2,8(fp)
 3081254:	1885883a 	add	r2,r3,r2
 3081258:	10800003 	ldbu	r2,0(r2)
 308125c:	11803fcc 	andi	r6,r2,255
 3081260:	e13ffb17 	ldw	r4,-20(fp)
 3081264:	e17ffc17 	ldw	r5,-16(fp)
 3081268:	30809bc0 	call	30809bc <i2c_write>
 308126c:	e0bffa15 	stw	r2,-24(fp)
    if (bSuccess && !i2c_write(clk_base, data_base, AddrLow)){ // send sub-address
        bSuccess = FALSE;
        I2C_DEBUG(("I2C HMB_E2 Fail: SubAddress-low NACK!\n"));
    }            
    if (bSuccess){// && !i2c_write(clk_base, data_base, ControlData)){
        for(i=0;i<len && bSuccess;i++){
 3081270:	e0bff817 	ldw	r2,-32(fp)
 3081274:	10800044 	addi	r2,r2,1
 3081278:	e0bff815 	stw	r2,-32(fp)
 308127c:	e0ffff0b 	ldhu	r3,-4(fp)
 3081280:	e0bff817 	ldw	r2,-32(fp)
 3081284:	10c0030e 	bge	r2,r3,3081294 <I2CL_MultipleWrite+0x15c>
 3081288:	e0bffa17 	ldw	r2,-24(fp)
 308128c:	1004c03a 	cmpne	r2,r2,zero
 3081290:	103fed1e 	bne	r2,zero,3081248 <I2CL_MultipleWrite+0x110>
            bSuccess = i2c_write(clk_base, data_base, szData[i]);
        }  
        //bSuccess = FALSE;
        if (!bSuccess)
 3081294:	e0bffa17 	ldw	r2,-24(fp)
 3081298:	1004c03a 	cmpne	r2,r2,zero
 308129c:	1000031e 	bne	r2,zero,30812ac <I2CL_MultipleWrite+0x174>
            I2C_DEBUG(("I2C HMB_E2 Fail: write NACK!\n"));
 30812a0:	01008034 	movhi	r4,512
 30812a4:	21001104 	addi	r4,r4,68
 30812a8:	30815b40 	call	30815b4 <myprintf>
    }
    i2c_stop(clk_base, data_base);
 30812ac:	e13ffb17 	ldw	r4,-20(fp)
 30812b0:	e17ffc17 	ldw	r5,-16(fp)
 30812b4:	30809440 	call	3080944 <i2c_stop>
    
    usleep(7*1000); // delay to wait EE2 ready (at least 5 ms delay is required)
 30812b8:	0106d604 	movi	r4,7000
 30812bc:	30963040 	call	3096304 <usleep>
    
    return bSuccess;
 30812c0:	e0bffa17 	ldw	r2,-24(fp)
    
}
 30812c4:	e037883a 	mov	sp,fp
 30812c8:	dfc00117 	ldw	ra,4(sp)
 30812cc:	df000017 	ldw	fp,0(sp)
 30812d0:	dec00204 	addi	sp,sp,8
 30812d4:	f800283a 	ret

030812d8 <I2CL_Read16>:
 


bool I2CL_Read16(alt_u32 clk_base, alt_u32 data_base, alt_8 DeviceAddr, alt_u16 ControlAddr, alt_u16 *pControlData){
 30812d8:	defff604 	addi	sp,sp,-40
 30812dc:	dfc00915 	stw	ra,36(sp)
 30812e0:	df000815 	stw	fp,32(sp)
 30812e4:	df000804 	addi	fp,sp,32
 30812e8:	e13ffc15 	stw	r4,-16(fp)
 30812ec:	e17ffd15 	stw	r5,-12(fp)
 30812f0:	e1bffe05 	stb	r6,-8(fp)
 30812f4:	e1ffff0d 	sth	r7,-4(fp)
    bool bSuccess;
    alt_u8 szData[2];
    bSuccess = I2CL_MultipleRead(clk_base, data_base, DeviceAddr, ControlAddr, szData, sizeof(szData));
 30812f8:	e1bffe07 	ldb	r6,-8(fp)
 30812fc:	e1ffff0b 	ldhu	r7,-4(fp)
 3081300:	e0bffb04 	addi	r2,fp,-20
 3081304:	d8800015 	stw	r2,0(sp)
 3081308:	00800084 	movi	r2,2
 308130c:	d8800115 	stw	r2,4(sp)
 3081310:	e13ffc17 	ldw	r4,-16(fp)
 3081314:	e17ffd17 	ldw	r5,-12(fp)
 3081318:	3080f580 	call	3080f58 <I2CL_MultipleRead>
 308131c:	e0bffa15 	stw	r2,-24(fp)
    if (bSuccess){
 3081320:	e0bffa17 	ldw	r2,-24(fp)
 3081324:	1005003a 	cmpeq	r2,r2,zero
 3081328:	10000a1e 	bne	r2,zero,3081354 <I2CL_Read16+0x7c>
        *pControlData = (szData[0] << 8 ) | szData[1];
 308132c:	e0bffb03 	ldbu	r2,-20(fp)
 3081330:	10803fcc 	andi	r2,r2,255
 3081334:	1004923a 	slli	r2,r2,8
 3081338:	1007883a 	mov	r3,r2
 308133c:	e0bffb43 	ldbu	r2,-19(fp)
 3081340:	10803fcc 	andi	r2,r2,255
 3081344:	1884b03a 	or	r2,r3,r2
 3081348:	1007883a 	mov	r3,r2
 308134c:	e0800217 	ldw	r2,8(fp)
 3081350:	10c0000d 	sth	r3,0(r2)
    }
    return bSuccess;    
 3081354:	e0bffa17 	ldw	r2,-24(fp)
}
 3081358:	e037883a 	mov	sp,fp
 308135c:	dfc00117 	ldw	ra,4(sp)
 3081360:	df000017 	ldw	fp,0(sp)
 3081364:	dec00204 	addi	sp,sp,8
 3081368:	f800283a 	ret

0308136c <I2CL_Write16>:

bool I2CL_Write16(alt_u32 clk_base, alt_u32 data_base, alt_8 DeviceAddr, alt_u16 ControlAddr, alt_u16 ControlData){
 308136c:	defff504 	addi	sp,sp,-44
 3081370:	dfc00a15 	stw	ra,40(sp)
 3081374:	df000915 	stw	fp,36(sp)
 3081378:	df000904 	addi	fp,sp,36
 308137c:	e13ffb15 	stw	r4,-20(fp)
 3081380:	e17ffc15 	stw	r5,-16(fp)
 3081384:	e0800217 	ldw	r2,8(fp)
 3081388:	e1bffd05 	stb	r6,-12(fp)
 308138c:	e1fffe0d 	sth	r7,-8(fp)
 3081390:	e0bfff0d 	sth	r2,-4(fp)
    bool bSuccess;
    alt_u8 szData[2];
    szData[0] = (ControlData >> 8) & 0xFF;
 3081394:	e0bfff0b 	ldhu	r2,-4(fp)
 3081398:	1004d23a 	srli	r2,r2,8
 308139c:	1007883a 	mov	r3,r2
 30813a0:	00bfffc4 	movi	r2,-1
 30813a4:	1884703a 	and	r2,r3,r2
 30813a8:	e0bffa05 	stb	r2,-24(fp)
    szData[1] = ControlData & 0xFF;   
 30813ac:	e0bfff0b 	ldhu	r2,-4(fp)
 30813b0:	1007883a 	mov	r3,r2
 30813b4:	00bfffc4 	movi	r2,-1
 30813b8:	1884703a 	and	r2,r3,r2
 30813bc:	e0bffa45 	stb	r2,-23(fp)
    bSuccess = I2CL_MultipleWrite(clk_base, data_base, DeviceAddr, ControlAddr, szData, sizeof(szData));
 30813c0:	e1bffd07 	ldb	r6,-12(fp)
 30813c4:	e1fffe0b 	ldhu	r7,-8(fp)
 30813c8:	e0bffa04 	addi	r2,fp,-24
 30813cc:	d8800015 	stw	r2,0(sp)
 30813d0:	00800084 	movi	r2,2
 30813d4:	d8800115 	stw	r2,4(sp)
 30813d8:	e13ffb17 	ldw	r4,-20(fp)
 30813dc:	e17ffc17 	ldw	r5,-16(fp)
 30813e0:	30811380 	call	3081138 <I2CL_MultipleWrite>
 30813e4:	e0bff915 	stw	r2,-28(fp)
    return bSuccess;    
 30813e8:	e0bff917 	ldw	r2,-28(fp)
}
 30813ec:	e037883a 	mov	sp,fp
 30813f0:	dfc00117 	ldw	ra,4(sp)
 30813f4:	df000017 	ldw	fp,0(sp)
 30813f8:	dec00204 	addi	sp,sp,8
 30813fc:	f800283a 	ret

03081400 <LCD_Open>:
// (\r): Move the cursor to the start of the current line
// (\n): Move the cursor to the start of the line and move it donw one line

static FILE *fp=0;

bool LCD_Open(void){
 3081400:	defffd04 	addi	sp,sp,-12
 3081404:	dfc00215 	stw	ra,8(sp)
 3081408:	df000115 	stw	fp,4(sp)
 308140c:	df000104 	addi	fp,sp,4
    fp = fopen(LCD_NAME, "w");
 3081410:	01008034 	movhi	r4,512
 3081414:	21007d04 	addi	r4,r4,500
 3081418:	01408034 	movhi	r5,512
 308141c:	29408004 	addi	r5,r5,512
 3081420:	308c8a40 	call	308c8a4 <fopen>
 3081424:	d0a01915 	stw	r2,-32668(gp)
    if (fp)
 3081428:	d0a01917 	ldw	r2,-32668(gp)
 308142c:	1005003a 	cmpeq	r2,r2,zero
 3081430:	1000031e 	bne	r2,zero,3081440 <LCD_Open+0x40>
        return TRUE;
 3081434:	00800044 	movi	r2,1
 3081438:	e0bfff15 	stw	r2,-4(fp)
 308143c:	00000106 	br	3081444 <LCD_Open+0x44>
    return FALSE;        
 3081440:	e03fff15 	stw	zero,-4(fp)
 3081444:	e0bfff17 	ldw	r2,-4(fp)
}
 3081448:	e037883a 	mov	sp,fp
 308144c:	dfc00117 	ldw	ra,4(sp)
 3081450:	df000017 	ldw	fp,0(sp)
 3081454:	dec00204 	addi	sp,sp,8
 3081458:	f800283a 	ret

0308145c <LCD_TextOut>:
bool LCD_TextOut(char *pText){
 308145c:	defffc04 	addi	sp,sp,-16
 3081460:	dfc00315 	stw	ra,12(sp)
 3081464:	df000215 	stw	fp,8(sp)
 3081468:	df000204 	addi	fp,sp,8
 308146c:	e13ffe15 	stw	r4,-8(fp)
    if (!fp)
 3081470:	d0a01917 	ldw	r2,-32668(gp)
 3081474:	1004c03a 	cmpne	r2,r2,zero
 3081478:	1000021e 	bne	r2,zero,3081484 <LCD_TextOut+0x28>
        return FALSE;
 308147c:	e03fff15 	stw	zero,-4(fp)
 3081480:	00000906 	br	30814a8 <LCD_TextOut+0x4c>
    fwrite(pText, strlen(pText), 1, fp);        
 3081484:	e13ffe17 	ldw	r4,-8(fp)
 3081488:	308e5280 	call	308e528 <strlen>
 308148c:	100b883a 	mov	r5,r2
 3081490:	d1e01917 	ldw	r7,-32668(gp)
 3081494:	e13ffe17 	ldw	r4,-8(fp)
 3081498:	01800044 	movi	r6,1
 308149c:	308d3f00 	call	308d3f0 <fwrite>
    return TRUE;        
 30814a0:	00800044 	movi	r2,1
 30814a4:	e0bfff15 	stw	r2,-4(fp)
 30814a8:	e0bfff17 	ldw	r2,-4(fp)
}
 30814ac:	e037883a 	mov	sp,fp
 30814b0:	dfc00117 	ldw	ra,4(sp)
 30814b4:	df000017 	ldw	fp,0(sp)
 30814b8:	dec00204 	addi	sp,sp,8
 30814bc:	f800283a 	ret

030814c0 <LCD_Clear>:

bool LCD_Clear(void){
 30814c0:	defff504 	addi	sp,sp,-44
 30814c4:	dfc00a15 	stw	ra,40(sp)
 30814c8:	df000915 	stw	fp,36(sp)
 30814cc:	df000904 	addi	fp,sp,36
    char szText[32]="\n\n";
 30814d0:	00c08034 	movhi	r3,512
 30814d4:	18c08104 	addi	r3,r3,516
 30814d8:	1880000b 	ldhu	r2,0(r3)
 30814dc:	e0bff70d 	sth	r2,-36(fp)
 30814e0:	18800083 	ldbu	r2,2(r3)
 30814e4:	e0bff785 	stb	r2,-34(fp)
 30814e8:	e13ff7c4 	addi	r4,fp,-33
 30814ec:	01800744 	movi	r6,29
 30814f0:	000b883a 	mov	r5,zero
 30814f4:	308ddcc0 	call	308ddcc <memset>
    if (!fp)
 30814f8:	d0a01917 	ldw	r2,-32668(gp)
 30814fc:	1004c03a 	cmpne	r2,r2,zero
 3081500:	1000021e 	bne	r2,zero,308150c <LCD_Clear+0x4c>
        return FALSE;
 3081504:	e03fff15 	stw	zero,-4(fp)
 3081508:	00000906 	br	3081530 <LCD_Clear+0x70>
    fwrite(szText, strlen(szText), 1, fp);        
 308150c:	e13ff704 	addi	r4,fp,-36
 3081510:	308e5280 	call	308e528 <strlen>
 3081514:	100b883a 	mov	r5,r2
 3081518:	d1e01917 	ldw	r7,-32668(gp)
 308151c:	e13ff704 	addi	r4,fp,-36
 3081520:	01800044 	movi	r6,1
 3081524:	308d3f00 	call	308d3f0 <fwrite>
    return TRUE;        
 3081528:	00800044 	movi	r2,1
 308152c:	e0bfff15 	stw	r2,-4(fp)
 3081530:	e0bfff17 	ldw	r2,-4(fp)
}
 3081534:	e037883a 	mov	sp,fp
 3081538:	dfc00117 	ldw	ra,4(sp)
 308153c:	df000017 	ldw	fp,0(sp)
 3081540:	dec00204 	addi	sp,sp,8
 3081544:	f800283a 	ret

03081548 <LCD_Close>:


void LCD_Close(void){
 3081548:	defffe04 	addi	sp,sp,-8
 308154c:	dfc00115 	stw	ra,4(sp)
 3081550:	df000015 	stw	fp,0(sp)
 3081554:	d839883a 	mov	fp,sp
    if (fp)
 3081558:	d0a01917 	ldw	r2,-32668(gp)
 308155c:	1005003a 	cmpeq	r2,r2,zero
 3081560:	1000021e 	bne	r2,zero,308156c <LCD_Close+0x24>
        fclose(fp);
 3081564:	d1201917 	ldw	r4,-32668(gp)
 3081568:	308c2ac0 	call	308c2ac <fclose>
    fp = 0;        
 308156c:	d0201915 	stw	zero,-32668(gp)
}
 3081570:	e037883a 	mov	sp,fp
 3081574:	dfc00117 	ldw	ra,4(sp)
 3081578:	df000017 	ldw	fp,0(sp)
 308157c:	dec00204 	addi	sp,sp,8
 3081580:	f800283a 	ret

03081584 <debug_output>:
    UART_WriteString(pMessage);  // UART debug
}

#else

void debug_output(char *pMessage){
 3081584:	defffd04 	addi	sp,sp,-12
 3081588:	dfc00215 	stw	ra,8(sp)
 308158c:	df000115 	stw	fp,4(sp)
 3081590:	df000104 	addi	fp,sp,4
 3081594:	e13fff15 	stw	r4,-4(fp)
    
    printf(pMessage);
 3081598:	e13fff17 	ldw	r4,-4(fp)
 308159c:	308dedc0 	call	308dedc <printf>
}
 30815a0:	e037883a 	mov	sp,fp
 30815a4:	dfc00117 	ldw	ra,4(sp)
 30815a8:	df000017 	ldw	fp,0(sp)
 30815ac:	dec00204 	addi	sp,sp,8
 30815b0:	f800283a 	ret

030815b4 <myprintf>:





int myprintf(char *format, ...){
 30815b4:	deff7804 	addi	sp,sp,-544
 30815b8:	dfc08415 	stw	ra,528(sp)
 30815bc:	df008315 	stw	fp,524(sp)
 30815c0:	df008304 	addi	fp,sp,524
 30815c4:	e1400215 	stw	r5,8(fp)
 30815c8:	e1800315 	stw	r6,12(fp)
 30815cc:	e1c00415 	stw	r7,16(fp)
 30815d0:	e13fff15 	stw	r4,-4(fp)
    int rc;
    char szText[512];
    
    va_list paramList;
    va_start(paramList, format);
 30815d4:	e0800204 	addi	r2,fp,8
 30815d8:	e0bffe15 	stw	r2,-8(fp)
    rc = vsnprintf(szText, 512, format, paramList);
 30815dc:	e1fffe17 	ldw	r7,-8(fp)
 30815e0:	e13f7e04 	addi	r4,fp,-520
 30815e4:	01408004 	movi	r5,512
 30815e8:	e1bfff17 	ldw	r6,-4(fp)
 30815ec:	30905780 	call	3090578 <vsnprintf>
 30815f0:	e0bf7d15 	stw	r2,-524(fp)
    va_end(paramList);
    
    debug_output(szText);
 30815f4:	e13f7e04 	addi	r4,fp,-520
 30815f8:	30815840 	call	3081584 <debug_output>

    return rc;    
 30815fc:	e0bf7d17 	ldw	r2,-524(fp)
}
 3081600:	e037883a 	mov	sp,fp
 3081604:	dfc00117 	ldw	ra,4(sp)
 3081608:	df000017 	ldw	fp,0(sp)
 308160c:	dec00504 	addi	sp,sp,20
 3081610:	f800283a 	ret

03081614 <myprintf_hexarray>:


int myprintf_hexarray(unsigned char *pHex, int len){
 3081614:	defff704 	addi	sp,sp,-36
 3081618:	dfc00815 	stw	ra,32(sp)
 308161c:	df000715 	stw	fp,28(sp)
 3081620:	df000704 	addi	fp,sp,28
 3081624:	e13ffe15 	stw	r4,-8(fp)
 3081628:	e17fff15 	stw	r5,-4(fp)
    int i;
    unsigned char szText[16];
    for(i=0;i<len;i++){
 308162c:	e03ff915 	stw	zero,-28(fp)
 3081630:	00000f06 	br	3081670 <myprintf_hexarray+0x5c>
        sprintf(szText, "[%02X]", *(pHex+i));
 3081634:	e13ffa04 	addi	r4,fp,-24
 3081638:	e0bff917 	ldw	r2,-28(fp)
 308163c:	1007883a 	mov	r3,r2
 3081640:	e0bffe17 	ldw	r2,-8(fp)
 3081644:	1885883a 	add	r2,r3,r2
 3081648:	10800003 	ldbu	r2,0(r2)
 308164c:	11803fcc 	andi	r6,r2,255
 3081650:	01408034 	movhi	r5,512
 3081654:	29408904 	addi	r5,r5,548
 3081658:	308e27c0 	call	308e27c <sprintf>
        DEBUG((szText));
 308165c:	e13ffa04 	addi	r4,fp,-24
 3081660:	30815b40 	call	30815b4 <myprintf>


int myprintf_hexarray(unsigned char *pHex, int len){
    int i;
    unsigned char szText[16];
    for(i=0;i<len;i++){
 3081664:	e0bff917 	ldw	r2,-28(fp)
 3081668:	10800044 	addi	r2,r2,1
 308166c:	e0bff915 	stw	r2,-28(fp)
 3081670:	e0fff917 	ldw	r3,-28(fp)
 3081674:	e0bfff17 	ldw	r2,-4(fp)
 3081678:	18bfee16 	blt	r3,r2,3081634 <myprintf_hexarray+0x20>
        sprintf(szText, "[%02X]", *(pHex+i));
        DEBUG((szText));
    }
    return len;
 308167c:	e0bfff17 	ldw	r2,-4(fp)
}
 3081680:	e037883a 	mov	sp,fp
 3081684:	dfc00117 	ldw	ra,4(sp)
 3081688:	df000017 	ldw	fp,0(sp)
 308168c:	dec00204 	addi	sp,sp,8
 3081690:	f800283a 	ret

03081694 <myprintf_dwordarray>:

int  myprintf_dwordarray(unsigned int *pArray, int nElementCount){
 3081694:	defff704 	addi	sp,sp,-36
 3081698:	dfc00815 	stw	ra,32(sp)
 308169c:	df000715 	stw	fp,28(sp)
 30816a0:	df000704 	addi	fp,sp,28
 30816a4:	e13ffe15 	stw	r4,-8(fp)
 30816a8:	e17fff15 	stw	r5,-4(fp)
    int i;
    char szText[16];
    for(i=0;i<nElementCount;i++){
 30816ac:	e03ff915 	stw	zero,-28(fp)
 30816b0:	00001006 	br	30816f4 <myprintf_dwordarray+0x60>
        sprintf(szText, "[%08X]", *(pArray+i));
 30816b4:	e0bff917 	ldw	r2,-28(fp)
 30816b8:	1085883a 	add	r2,r2,r2
 30816bc:	1085883a 	add	r2,r2,r2
 30816c0:	1007883a 	mov	r3,r2
 30816c4:	e0bffe17 	ldw	r2,-8(fp)
 30816c8:	1885883a 	add	r2,r3,r2
 30816cc:	11800017 	ldw	r6,0(r2)
 30816d0:	e13ffa04 	addi	r4,fp,-24
 30816d4:	01408034 	movhi	r5,512
 30816d8:	29408b04 	addi	r5,r5,556
 30816dc:	308e27c0 	call	308e27c <sprintf>
        DEBUG((szText));
 30816e0:	e13ffa04 	addi	r4,fp,-24
 30816e4:	30815b40 	call	30815b4 <myprintf>
}

int  myprintf_dwordarray(unsigned int *pArray, int nElementCount){
    int i;
    char szText[16];
    for(i=0;i<nElementCount;i++){
 30816e8:	e0bff917 	ldw	r2,-28(fp)
 30816ec:	10800044 	addi	r2,r2,1
 30816f0:	e0bff915 	stw	r2,-28(fp)
 30816f4:	e0fff917 	ldw	r3,-28(fp)
 30816f8:	e0bfff17 	ldw	r2,-4(fp)
 30816fc:	18bfed16 	blt	r3,r2,30816b4 <myprintf_dwordarray+0x20>
        sprintf(szText, "[%08X]", *(pArray+i));
        DEBUG((szText));
    }
    return nElementCount;
 3081700:	e0bfff17 	ldw	r2,-4(fp)
}
 3081704:	e037883a 	mov	sp,fp
 3081708:	dfc00117 	ldw	ra,4(sp)
 308170c:	df000017 	ldw	fp,0(sp)
 3081710:	dec00204 	addi	sp,sp,8
 3081714:	f800283a 	ret

03081718 <Flash_InfoDump>:
    int number_of_regions_flash;
}FLASH_INFO;



bool Flash_InfoDump(char *pFlashName){
 3081718:	defff304 	addi	sp,sp,-52
 308171c:	dfc00c15 	stw	ra,48(sp)
 3081720:	df000b15 	stw	fp,44(sp)
 3081724:	df000b04 	addi	fp,sp,44
 3081728:	e13fff15 	stw	r4,-4(fp)
    bool bSuccess = FALSE;
 308172c:	e03ffc15 	stw	zero,-16(fp)
    flash_region *regions, *nextreg;
    alt_flash_fd* fd;
    int number_of_regions;
    int ret_code;
    /* Set write_data to all 0xa */
    FLASH_DEBUG(("Flash_InfoDump\r\n"));
 3081730:	01008034 	movhi	r4,512
 3081734:	21008d04 	addi	r4,r4,564
 3081738:	30815b40 	call	30815b4 <myprintf>
    fd = alt_flash_open_dev(pFlashName);
 308173c:	e13fff17 	ldw	r4,-4(fp)
 3081740:	30955200 	call	3095520 <alt_flash_open_dev>
 3081744:	e0bffa15 	stw	r2,-24(fp)
    if (fd){
 3081748:	e0bffa17 	ldw	r2,-24(fp)
 308174c:	1005003a 	cmpeq	r2,r2,zero
 3081750:	1000431e 	bne	r2,zero,3081860 <Flash_InfoDump+0x148>
 3081754:	e0bffa17 	ldw	r2,-24(fp)
 3081758:	e0bff515 	stw	r2,-44(fp)
 308175c:	e0bffd04 	addi	r2,fp,-12
 3081760:	e0bff615 	stw	r2,-40(fp)
 3081764:	e0bffe04 	addi	r2,fp,-8
 3081768:	e0bff715 	stw	r2,-36(fp)
 */
static __inline__ int __attribute__ ((always_inline)) alt_get_flash_info( 
                                      alt_flash_fd* fd, flash_region** info, 
                                      int* number_of_regions)
{
  return fd->get_info( fd, info, number_of_regions);
 308176c:	e0bff517 	ldw	r2,-44(fp)
 3081770:	10800717 	ldw	r2,28(r2)
 3081774:	e13ff517 	ldw	r4,-44(fp)
 3081778:	e17ff617 	ldw	r5,-40(fp)
 308177c:	e1bff717 	ldw	r6,-36(fp)
 3081780:	103ee83a 	callr	r2
        ret_code = alt_get_flash_info(fd,&regions,&number_of_regions);
 3081784:	e0bff915 	stw	r2,-28(fp)
        if (ret_code == 0){
 3081788:	e0bff917 	ldw	r2,-28(fp)
 308178c:	1004c03a 	cmpne	r2,r2,zero
 3081790:	10002c1e 	bne	r2,zero,3081844 <Flash_InfoDump+0x12c>
            int i;
            bSuccess = TRUE;
 3081794:	00800044 	movi	r2,1
 3081798:	e0bffc15 	stw	r2,-16(fp)
            nextreg = regions;
 308179c:	e0bffd17 	ldw	r2,-12(fp)
 30817a0:	e0bffb15 	stw	r2,-20(fp)
            FLASH_DEBUG(("number_of_regsion:%d\r\n", number_of_regions));
 30817a4:	e17ffe17 	ldw	r5,-8(fp)
 30817a8:	01008034 	movhi	r4,512
 30817ac:	21009204 	addi	r4,r4,584
 30817b0:	30815b40 	call	30815b4 <myprintf>
            for(i=0;i<number_of_regions;i++){
 30817b4:	e03ff815 	stw	zero,-32(fp)
 30817b8:	00001e06 	br	3081834 <Flash_InfoDump+0x11c>
                FLASH_DEBUG(("regsion[%d]\r\n", i));
 30817bc:	01008034 	movhi	r4,512
 30817c0:	21009804 	addi	r4,r4,608
 30817c4:	e17ff817 	ldw	r5,-32(fp)
 30817c8:	30815b40 	call	30815b4 <myprintf>
                FLASH_DEBUG(("  offset:%d\r\n", nextreg->offset));
 30817cc:	e0bffb17 	ldw	r2,-20(fp)
 30817d0:	11400017 	ldw	r5,0(r2)
 30817d4:	01008034 	movhi	r4,512
 30817d8:	21009c04 	addi	r4,r4,624
 30817dc:	30815b40 	call	30815b4 <myprintf>
                FLASH_DEBUG(("  region_size:%d\r\n", nextreg->region_size));
 30817e0:	e0bffb17 	ldw	r2,-20(fp)
 30817e4:	11400117 	ldw	r5,4(r2)
 30817e8:	01008034 	movhi	r4,512
 30817ec:	2100a004 	addi	r4,r4,640
 30817f0:	30815b40 	call	30815b4 <myprintf>
                FLASH_DEBUG(("  number_of_blocks:%d\r\n", nextreg->number_of_blocks));
 30817f4:	e0bffb17 	ldw	r2,-20(fp)
 30817f8:	11400217 	ldw	r5,8(r2)
 30817fc:	01008034 	movhi	r4,512
 3081800:	2100a504 	addi	r4,r4,660
 3081804:	30815b40 	call	30815b4 <myprintf>
                FLASH_DEBUG(("  block_size;:%d\r\n", nextreg->block_size));
 3081808:	e0bffb17 	ldw	r2,-20(fp)
 308180c:	11400317 	ldw	r5,12(r2)
 3081810:	01008034 	movhi	r4,512
 3081814:	2100ab04 	addi	r4,r4,684
 3081818:	30815b40 	call	30815b4 <myprintf>
                nextreg++;
 308181c:	e0bffb17 	ldw	r2,-20(fp)
 3081820:	10800404 	addi	r2,r2,16
 3081824:	e0bffb15 	stw	r2,-20(fp)
        if (ret_code == 0){
            int i;
            bSuccess = TRUE;
            nextreg = regions;
            FLASH_DEBUG(("number_of_regsion:%d\r\n", number_of_regions));
            for(i=0;i<number_of_regions;i++){
 3081828:	e0bff817 	ldw	r2,-32(fp)
 308182c:	10800044 	addi	r2,r2,1
 3081830:	e0bff815 	stw	r2,-32(fp)
 3081834:	e0fffe17 	ldw	r3,-8(fp)
 3081838:	e0bff817 	ldw	r2,-32(fp)
 308183c:	10ffdf16 	blt	r2,r3,30817bc <Flash_InfoDump+0xa4>
 3081840:	00000406 	br	3081854 <Flash_InfoDump+0x13c>
                FLASH_DEBUG(("  number_of_blocks:%d\r\n", nextreg->number_of_blocks));
                FLASH_DEBUG(("  block_size;:%d\r\n", nextreg->block_size));
                nextreg++;
            }                
        }else{
            FLASH_DEBUG(("alt_get_flash_info error, ret_code:%d fail\r\n", ret_code));
 3081844:	01008034 	movhi	r4,512
 3081848:	2100b004 	addi	r4,r4,704
 308184c:	e17ff917 	ldw	r5,-28(fp)
 3081850:	30815b40 	call	30815b4 <myprintf>
        }
        alt_flash_close_dev(fd);
 3081854:	e13ffa17 	ldw	r4,-24(fp)
 3081858:	309559c0 	call	309559c <alt_flash_close_dev>
 308185c:	00000306 	br	308186c <Flash_InfoDump+0x154>
    }else{
        FLASH_DEBUG(("alt_flash_open_dev fail\r\n"));
 3081860:	01008034 	movhi	r4,512
 3081864:	2100bc04 	addi	r4,r4,752
 3081868:	30815b40 	call	30815b4 <myprintf>
    }
    
    if (!bSuccess)        
 308186c:	e0bffc17 	ldw	r2,-16(fp)
 3081870:	1004c03a 	cmpne	r2,r2,zero
 3081874:	1000031e 	bne	r2,zero,3081884 <Flash_InfoDump+0x16c>
        FLASH_DEBUG(("Flash_InfoDump fail\r\n"));
 3081878:	01008034 	movhi	r4,512
 308187c:	2100c304 	addi	r4,r4,780
 3081880:	30815b40 	call	30815b4 <myprintf>

    return bSuccess;
 3081884:	e0bffc17 	ldw	r2,-16(fp)
    
}
 3081888:	e037883a 	mov	sp,fp
 308188c:	dfc00117 	ldw	ra,4(sp)
 3081890:	df000017 	ldw	fp,0(sp)
 3081894:	dec00204 	addi	sp,sp,8
 3081898:	f800283a 	ret

0308189c <Flash_Open>:



FLASH_HANDLE Flash_Open(char *pFlashName){
 308189c:	defff704 	addi	sp,sp,-36
 30818a0:	dfc00815 	stw	ra,32(sp)
 30818a4:	df000715 	stw	fp,28(sp)
 30818a8:	df000704 	addi	fp,sp,28
 30818ac:	e13fff15 	stw	r4,-4(fp)
    int error_code;
    bool bSuccess = FALSE;
 30818b0:	e03ffd15 	stw	zero,-12(fp)
    FLASH_INFO *pFlash=NULL;
 30818b4:	e03ffc15 	stw	zero,-16(fp)
    
    pFlash = (FLASH_INFO *)malloc(sizeof(FLASH_INFO));
 30818b8:	01000304 	movi	r4,12
 30818bc:	308d5d80 	call	308d5d8 <malloc>
 30818c0:	e0bffc15 	stw	r2,-16(fp)
    pFlash->fd_flash = alt_flash_open_dev(pFlashName);
 30818c4:	e13fff17 	ldw	r4,-4(fp)
 30818c8:	30955200 	call	3095520 <alt_flash_open_dev>
 30818cc:	1007883a 	mov	r3,r2
 30818d0:	e0bffc17 	ldw	r2,-16(fp)
 30818d4:	10c00015 	stw	r3,0(r2)
    if (pFlash->fd_flash){
 30818d8:	e0bffc17 	ldw	r2,-16(fp)
 30818dc:	10800017 	ldw	r2,0(r2)
 30818e0:	1005003a 	cmpeq	r2,r2,zero
 30818e4:	1000151e 	bne	r2,zero,308193c <Flash_Open+0xa0>
        error_code = alt_get_flash_info(pFlash->fd_flash,&pFlash->regions_flash,&pFlash->number_of_regions_flash);
 30818e8:	e0bffc17 	ldw	r2,-16(fp)
 30818ec:	10c00017 	ldw	r3,0(r2)
 30818f0:	e0bffc17 	ldw	r2,-16(fp)
 30818f4:	11000104 	addi	r4,r2,4
 30818f8:	e0bffc17 	ldw	r2,-16(fp)
 30818fc:	10800204 	addi	r2,r2,8
 3081900:	e0fff915 	stw	r3,-28(fp)
 3081904:	e13ffa15 	stw	r4,-24(fp)
 3081908:	e0bffb15 	stw	r2,-20(fp)
 308190c:	e0bff917 	ldw	r2,-28(fp)
 3081910:	10800717 	ldw	r2,28(r2)
 3081914:	e13ff917 	ldw	r4,-28(fp)
 3081918:	e17ffa17 	ldw	r5,-24(fp)
 308191c:	e1bffb17 	ldw	r6,-20(fp)
 3081920:	103ee83a 	callr	r2
 3081924:	e0bffe15 	stw	r2,-8(fp)
        if (error_code == 0){
 3081928:	e0bffe17 	ldw	r2,-8(fp)
 308192c:	1004c03a 	cmpne	r2,r2,zero
 3081930:	1000021e 	bne	r2,zero,308193c <Flash_Open+0xa0>
            bSuccess = TRUE;
 3081934:	00800044 	movi	r2,1
 3081938:	e0bffd15 	stw	r2,-12(fp)
        }            
    }
    
    if (!bSuccess){
 308193c:	e0bffd17 	ldw	r2,-12(fp)
 3081940:	1004c03a 	cmpne	r2,r2,zero
 3081944:	1000031e 	bne	r2,zero,3081954 <Flash_Open+0xb8>
        free(pFlash);
 3081948:	e13ffc17 	ldw	r4,-16(fp)
 308194c:	308d5c40 	call	308d5c4 <free>
        pFlash= NULL;
 3081950:	e03ffc15 	stw	zero,-16(fp)
    }        
    return pFlash;
 3081954:	e0bffc17 	ldw	r2,-16(fp)
            
}
 3081958:	e037883a 	mov	sp,fp
 308195c:	dfc00117 	ldw	ra,4(sp)
 3081960:	df000017 	ldw	fp,0(sp)
 3081964:	dec00204 	addi	sp,sp,8
 3081968:	f800283a 	ret

0308196c <Flash_Close>:

bool Flash_Close(FLASH_HANDLE Handle){
 308196c:	defffc04 	addi	sp,sp,-16
 3081970:	dfc00315 	stw	ra,12(sp)
 3081974:	df000215 	stw	fp,8(sp)
 3081978:	df000204 	addi	fp,sp,8
 308197c:	e13fff15 	stw	r4,-4(fp)
    FLASH_INFO *pFlash = (FLASH_INFO *)Handle;
 3081980:	e0bfff17 	ldw	r2,-4(fp)
 3081984:	e0bffe15 	stw	r2,-8(fp)
    if (pFlash->fd_flash){
 3081988:	e0bffe17 	ldw	r2,-8(fp)
 308198c:	10800017 	ldw	r2,0(r2)
 3081990:	1005003a 	cmpeq	r2,r2,zero
 3081994:	1000031e 	bne	r2,zero,30819a4 <Flash_Close+0x38>
        alt_flash_close_dev(pFlash->fd_flash);
 3081998:	e0bffe17 	ldw	r2,-8(fp)
 308199c:	11000017 	ldw	r4,0(r2)
 30819a0:	309559c0 	call	309559c <alt_flash_close_dev>
    }
    free(Handle);
 30819a4:	e13fff17 	ldw	r4,-4(fp)
 30819a8:	308d5c40 	call	308d5c4 <free>
    return TRUE;
 30819ac:	00800044 	movi	r2,1
}
 30819b0:	e037883a 	mov	sp,fp
 30819b4:	dfc00117 	ldw	ra,4(sp)
 30819b8:	df000017 	ldw	fp,0(sp)
 30819bc:	dec00204 	addi	sp,sp,8
 30819c0:	f800283a 	ret

030819c4 <Flash_GetBlockInfo>:

bool Flash_GetBlockInfo(FLASH_HANDLE Handle, alt_u16 block_index, alt_32 *poffset, alt_32 *psize){
 30819c4:	defff204 	addi	sp,sp,-56
 30819c8:	df000d15 	stw	fp,52(sp)
 30819cc:	df000d04 	addi	fp,sp,52
 30819d0:	e13ffb15 	stw	r4,-20(fp)
 30819d4:	e1bffd15 	stw	r6,-12(fp)
 30819d8:	e1fffe15 	stw	r7,-8(fp)
 30819dc:	e17ffc0d 	sth	r5,-16(fp)
    FLASH_INFO *pFlash = (FLASH_INFO *)Handle;
 30819e0:	e0bffb17 	ldw	r2,-20(fp)
 30819e4:	e0bffa15 	stw	r2,-24(fp)
    alt_u32 offset=0, length;        
 30819e8:	e03ff915 	stw	zero,-28(fp)
    int r, i, block_count=0;
 30819ec:	e03ff515 	stw	zero,-44(fp)
    flash_region *nextreg = pFlash->regions_flash;
 30819f0:	e0bffa17 	ldw	r2,-24(fp)
 30819f4:	10800117 	ldw	r2,4(r2)
 30819f8:	e0bff415 	stw	r2,-48(fp)
    bool bFind = FALSE;
 30819fc:	e03ff315 	stw	zero,-52(fp)
    
    if (!pFlash->fd_flash)
 3081a00:	e0bffa17 	ldw	r2,-24(fp)
 3081a04:	10800017 	ldw	r2,0(r2)
 3081a08:	1004c03a 	cmpne	r2,r2,zero
 3081a0c:	1000021e 	bne	r2,zero,3081a18 <Flash_GetBlockInfo+0x54>
        return FALSE;
 3081a10:	e03fff15 	stw	zero,-4(fp)
 3081a14:	00003506 	br	3081aec <Flash_GetBlockInfo+0x128>
    
    
    for(r=0;r<pFlash->number_of_regions_flash && !bFind;r++){
 3081a18:	e03ff715 	stw	zero,-36(fp)
 3081a1c:	00002106 	br	3081aa4 <Flash_GetBlockInfo+0xe0>
        for(i=0;i<nextreg->number_of_blocks;i++){
 3081a20:	e03ff615 	stw	zero,-40(fp)
 3081a24:	00001506 	br	3081a7c <Flash_GetBlockInfo+0xb8>
            if (block_count == block_index){
 3081a28:	e0fffc0b 	ldhu	r3,-16(fp)
 3081a2c:	e0bff517 	ldw	r2,-44(fp)
 3081a30:	1880061e 	bne	r3,r2,3081a4c <Flash_GetBlockInfo+0x88>
                bFind = TRUE;
 3081a34:	00800044 	movi	r2,1
 3081a38:	e0bff315 	stw	r2,-52(fp)
                length = nextreg->block_size;
 3081a3c:	e0bff417 	ldw	r2,-48(fp)
 3081a40:	10800317 	ldw	r2,12(r2)
 3081a44:	e0bff815 	stw	r2,-32(fp)
 3081a48:	00000906 	br	3081a70 <Flash_GetBlockInfo+0xac>
            }else{
                offset += nextreg->block_size;
 3081a4c:	e0bff417 	ldw	r2,-48(fp)
 3081a50:	10800317 	ldw	r2,12(r2)
 3081a54:	1007883a 	mov	r3,r2
 3081a58:	e0bff917 	ldw	r2,-28(fp)
 3081a5c:	10c5883a 	add	r2,r2,r3
 3081a60:	e0bff915 	stw	r2,-28(fp)
                block_count++;
 3081a64:	e0bff517 	ldw	r2,-44(fp)
 3081a68:	10800044 	addi	r2,r2,1
 3081a6c:	e0bff515 	stw	r2,-44(fp)
    if (!pFlash->fd_flash)
        return FALSE;
    
    
    for(r=0;r<pFlash->number_of_regions_flash && !bFind;r++){
        for(i=0;i<nextreg->number_of_blocks;i++){
 3081a70:	e0bff617 	ldw	r2,-40(fp)
 3081a74:	10800044 	addi	r2,r2,1
 3081a78:	e0bff615 	stw	r2,-40(fp)
 3081a7c:	e0bff417 	ldw	r2,-48(fp)
 3081a80:	10c00217 	ldw	r3,8(r2)
 3081a84:	e0bff617 	ldw	r2,-40(fp)
 3081a88:	10ffe716 	blt	r2,r3,3081a28 <Flash_GetBlockInfo+0x64>
            }else{
                offset += nextreg->block_size;
                block_count++;
            }
        }
        nextreg++;
 3081a8c:	e0bff417 	ldw	r2,-48(fp)
 3081a90:	10800404 	addi	r2,r2,16
 3081a94:	e0bff415 	stw	r2,-48(fp)
    
    if (!pFlash->fd_flash)
        return FALSE;
    
    
    for(r=0;r<pFlash->number_of_regions_flash && !bFind;r++){
 3081a98:	e0bff717 	ldw	r2,-36(fp)
 3081a9c:	10800044 	addi	r2,r2,1
 3081aa0:	e0bff715 	stw	r2,-36(fp)
 3081aa4:	e0bffa17 	ldw	r2,-24(fp)
 3081aa8:	10c00217 	ldw	r3,8(r2)
 3081aac:	e0bff717 	ldw	r2,-36(fp)
 3081ab0:	10c0030e 	bge	r2,r3,3081ac0 <Flash_GetBlockInfo+0xfc>
 3081ab4:	e0bff317 	ldw	r2,-52(fp)
 3081ab8:	1005003a 	cmpeq	r2,r2,zero
 3081abc:	103fd81e 	bne	r2,zero,3081a20 <Flash_GetBlockInfo+0x5c>
                block_count++;
            }
        }
        nextreg++;
    }    
    if (bFind){
 3081ac0:	e0bff317 	ldw	r2,-52(fp)
 3081ac4:	1005003a 	cmpeq	r2,r2,zero
 3081ac8:	1000061e 	bne	r2,zero,3081ae4 <Flash_GetBlockInfo+0x120>
        *poffset = offset;
 3081acc:	e0fff917 	ldw	r3,-28(fp)
 3081ad0:	e0bffd17 	ldw	r2,-12(fp)
 3081ad4:	10c00015 	stw	r3,0(r2)
        *psize = length;
 3081ad8:	e0fff817 	ldw	r3,-32(fp)
 3081adc:	e0bffe17 	ldw	r2,-8(fp)
 3081ae0:	10c00015 	stw	r3,0(r2)
    }
    
    return bFind;
 3081ae4:	e0bff317 	ldw	r2,-52(fp)
 3081ae8:	e0bfff15 	stw	r2,-4(fp)
 3081aec:	e0bfff17 	ldw	r2,-4(fp)
    
}
 3081af0:	e037883a 	mov	sp,fp
 3081af4:	df000017 	ldw	fp,0(sp)
 3081af8:	dec00104 	addi	sp,sp,4
 3081afc:	f800283a 	ret

03081b00 <Flash_Read>:

bool Flash_Read(FLASH_HANDLE Handle, alt_u32 offset, alt_u8 *szBuf, alt_u32 size){
 3081b00:	defff304 	addi	sp,sp,-52
 3081b04:	dfc00c15 	stw	ra,48(sp)
 3081b08:	df000b15 	stw	fp,44(sp)
 3081b0c:	df000b04 	addi	fp,sp,44
 3081b10:	e13ffb15 	stw	r4,-20(fp)
 3081b14:	e17ffc15 	stw	r5,-16(fp)
 3081b18:	e1bffd15 	stw	r6,-12(fp)
 3081b1c:	e1fffe15 	stw	r7,-8(fp)
    FLASH_INFO *pFlash = (FLASH_INFO *)Handle;
 3081b20:	e0bffb17 	ldw	r2,-20(fp)
 3081b24:	e0bffa15 	stw	r2,-24(fp)
    int error_code;
    if (!pFlash->fd_flash)
 3081b28:	e0bffa17 	ldw	r2,-24(fp)
 3081b2c:	10800017 	ldw	r2,0(r2)
 3081b30:	1004c03a 	cmpne	r2,r2,zero
 3081b34:	1000021e 	bne	r2,zero,3081b40 <Flash_Read+0x40>
        return FALSE;
 3081b38:	e03fff15 	stw	zero,-4(fp)
 3081b3c:	00001806 	br	3081ba0 <Flash_Read+0xa0>
    error_code = alt_read_flash(pFlash->fd_flash, offset, szBuf, size);
 3081b40:	e0bffa17 	ldw	r2,-24(fp)
 3081b44:	10800017 	ldw	r2,0(r2)
 3081b48:	e0fffc17 	ldw	r3,-16(fp)
 3081b4c:	e13ffe17 	ldw	r4,-8(fp)
 3081b50:	e0bff515 	stw	r2,-44(fp)
 3081b54:	e0fff615 	stw	r3,-40(fp)
 3081b58:	e0bffd17 	ldw	r2,-12(fp)
 3081b5c:	e0bff715 	stw	r2,-36(fp)
 3081b60:	e13ff815 	stw	r4,-32(fp)
 */
static __inline__ int __attribute__ ((always_inline)) alt_read_flash( 
                                      alt_flash_fd* fd, int offset, 
                                      void* dest_addr, int length )
{
  return fd->read( fd, offset, dest_addr, length );
 3081b64:	e0bff517 	ldw	r2,-44(fp)
 3081b68:	10800617 	ldw	r2,24(r2)
 3081b6c:	e13ff517 	ldw	r4,-44(fp)
 3081b70:	e17ff617 	ldw	r5,-40(fp)
 3081b74:	e1bff717 	ldw	r6,-36(fp)
 3081b78:	e1fff817 	ldw	r7,-32(fp)
 3081b7c:	103ee83a 	callr	r2
 3081b80:	e0bff915 	stw	r2,-28(fp)
    if (error_code == 0)
 3081b84:	e0bff917 	ldw	r2,-28(fp)
 3081b88:	1004c03a 	cmpne	r2,r2,zero
 3081b8c:	1000031e 	bne	r2,zero,3081b9c <Flash_Read+0x9c>
        return TRUE;
 3081b90:	00800044 	movi	r2,1
 3081b94:	e0bfff15 	stw	r2,-4(fp)
 3081b98:	00000106 	br	3081ba0 <Flash_Read+0xa0>
    return FALSE;                    
 3081b9c:	e03fff15 	stw	zero,-4(fp)
 3081ba0:	e0bfff17 	ldw	r2,-4(fp)
    
}
 3081ba4:	e037883a 	mov	sp,fp
 3081ba8:	dfc00117 	ldw	ra,4(sp)
 3081bac:	df000017 	ldw	fp,0(sp)
 3081bb0:	dec00204 	addi	sp,sp,8
 3081bb4:	f800283a 	ret

03081bb8 <Flash_Write>:

bool Flash_Write(FLASH_HANDLE Handle, alt_u32 offset, alt_u8 *szData, alt_u32 size){
 3081bb8:	deffe804 	addi	sp,sp,-96
 3081bbc:	dfc01715 	stw	ra,92(sp)
 3081bc0:	df001615 	stw	fp,88(sp)
 3081bc4:	df001604 	addi	fp,sp,88
 3081bc8:	e13ffb15 	stw	r4,-20(fp)
 3081bcc:	e17ffc15 	stw	r5,-16(fp)
 3081bd0:	e1bffd15 	stw	r6,-12(fp)
 3081bd4:	e1fffe15 	stw	r7,-8(fp)
    FLASH_INFO *pFlash = (FLASH_INFO *)Handle;
 3081bd8:	e0bffb17 	ldw	r2,-20(fp)
 3081bdc:	e0bffa15 	stw	r2,-24(fp)
    bool bSuccess = TRUE;
 3081be0:	00800044 	movi	r2,1
 3081be4:	e0bff915 	stw	r2,-28(fp)
    int error_code;
    
    if (!pFlash->fd_flash)
 3081be8:	e0bffa17 	ldw	r2,-24(fp)
 3081bec:	10800017 	ldw	r2,0(r2)
 3081bf0:	1004c03a 	cmpne	r2,r2,zero
 3081bf4:	1000021e 	bne	r2,zero,3081c00 <Flash_Write+0x48>
        return FALSE;
 3081bf8:	e03fff15 	stw	zero,-4(fp)
 3081bfc:	00008006 	br	3081e00 <Flash_Write+0x248>
    }else{
        FLASH_DEBUG(("alt_write_flash fail, error_code=%d\r\n", error_code));
    }    
#else
    int block_offset, block_size, write_count, this_write_size, r, i;//, first_offset;        
    flash_region *nextreg = pFlash->regions_flash;
 3081c00:	e0bffa17 	ldw	r2,-24(fp)
 3081c04:	10800117 	ldw	r2,4(r2)
 3081c08:	e0bff115 	stw	r2,-60(fp)

    
    block_offset = 0;
 3081c0c:	e03ff715 	stw	zero,-36(fp)
    write_count = 0;
 3081c10:	e03ff515 	stw	zero,-44(fp)
    for(r=0;r<pFlash->number_of_regions_flash && bSuccess;r++){
 3081c14:	e03ff315 	stw	zero,-52(fp)
 3081c18:	00007006 	br	3081ddc <Flash_Write+0x224>
        for(i=0;i<nextreg->number_of_blocks && bSuccess;i++){
 3081c1c:	e03ff215 	stw	zero,-56(fp)
 3081c20:	00006106 	br	3081da8 <Flash_Write+0x1f0>
            block_size = nextreg->block_size;
 3081c24:	e0bff117 	ldw	r2,-60(fp)
 3081c28:	10800317 	ldw	r2,12(r2)
 3081c2c:	e0bff615 	stw	r2,-40(fp)
//            FLASH_DEBUG(("block_offset=%d, block_size=%d\r\n", block_offset, block_size));
//            if ((offset >= block_offset) && ((offset+size) <= (block_offset + block_size))){
            if (((offset+write_count) >= block_offset) && (write_count < size)){
 3081c30:	e0fff517 	ldw	r3,-44(fp)
 3081c34:	e0bffc17 	ldw	r2,-16(fp)
 3081c38:	1887883a 	add	r3,r3,r2
 3081c3c:	e0bff717 	ldw	r2,-36(fp)
 3081c40:	18805236 	bltu	r3,r2,3081d8c <Flash_Write+0x1d4>
 3081c44:	e0fff517 	ldw	r3,-44(fp)
 3081c48:	e0bffe17 	ldw	r2,-8(fp)
 3081c4c:	18804f2e 	bgeu	r3,r2,3081d8c <Flash_Write+0x1d4>
                // write
                this_write_size = size - write_count;
 3081c50:	e0fff517 	ldw	r3,-44(fp)
 3081c54:	e0bffe17 	ldw	r2,-8(fp)
 3081c58:	10c5c83a 	sub	r2,r2,r3
 3081c5c:	e0bff415 	stw	r2,-48(fp)
                if (write_count == 0){
 3081c60:	e0bff517 	ldw	r2,-44(fp)
 3081c64:	1004c03a 	cmpne	r2,r2,zero
 3081c68:	1000101e 	bne	r2,zero,3081cac <Flash_Write+0xf4>
                    // first block
                    if (this_write_size > (block_offset + block_size - offset))
 3081c6c:	e13ff417 	ldw	r4,-48(fp)
 3081c70:	e0fff717 	ldw	r3,-36(fp)
 3081c74:	e0bff617 	ldw	r2,-40(fp)
 3081c78:	1885883a 	add	r2,r3,r2
 3081c7c:	1007883a 	mov	r3,r2
 3081c80:	e0bffc17 	ldw	r2,-16(fp)
 3081c84:	1885c83a 	sub	r2,r3,r2
 3081c88:	11000d2e 	bgeu	r2,r4,3081cc0 <Flash_Write+0x108>
                        this_write_size = block_offset + block_size - offset;
 3081c8c:	e0fff717 	ldw	r3,-36(fp)
 3081c90:	e0bff617 	ldw	r2,-40(fp)
 3081c94:	1885883a 	add	r2,r3,r2
 3081c98:	1007883a 	mov	r3,r2
 3081c9c:	e0bffc17 	ldw	r2,-16(fp)
 3081ca0:	1885c83a 	sub	r2,r3,r2
 3081ca4:	e0bff415 	stw	r2,-48(fp)
 3081ca8:	00000506 	br	3081cc0 <Flash_Write+0x108>
                }else{
                    // block aligement
                    if (this_write_size > block_size)
 3081cac:	e0fff417 	ldw	r3,-48(fp)
 3081cb0:	e0bff617 	ldw	r2,-40(fp)
 3081cb4:	10c0020e 	bge	r2,r3,3081cc0 <Flash_Write+0x108>
                        this_write_size = block_size;
 3081cb8:	e0bff617 	ldw	r2,-40(fp)
 3081cbc:	e0bff415 	stw	r2,-48(fp)
                }        
                error_code = alt_write_flash_block(pFlash->fd_flash, block_offset, offset+write_count, szData+write_count, this_write_size);
 3081cc0:	e0bffa17 	ldw	r2,-24(fp)
 3081cc4:	11000017 	ldw	r4,0(r2)
 3081cc8:	e0fff517 	ldw	r3,-44(fp)
 3081ccc:	e0bffc17 	ldw	r2,-16(fp)
 3081cd0:	1885883a 	add	r2,r3,r2
 3081cd4:	100b883a 	mov	r5,r2
 3081cd8:	e0bff517 	ldw	r2,-44(fp)
 3081cdc:	1007883a 	mov	r3,r2
 3081ce0:	e0bffd17 	ldw	r2,-12(fp)
 3081ce4:	1887883a 	add	r3,r3,r2
 3081ce8:	e13feb15 	stw	r4,-84(fp)
 3081cec:	e0bff717 	ldw	r2,-36(fp)
 3081cf0:	e0bfec15 	stw	r2,-80(fp)
 3081cf4:	e17fed15 	stw	r5,-76(fp)
 3081cf8:	e0ffee15 	stw	r3,-72(fp)
 3081cfc:	e0bff417 	ldw	r2,-48(fp)
 3081d00:	e0bfef15 	stw	r2,-68(fp)
                                      int data_offset,
                                      const void *data, int length)
{

  int ret_code;
  ret_code = fd->write_block( fd, block_offset, data_offset, data, length );
 3081d04:	e0bfeb17 	ldw	r2,-84(fp)
 3081d08:	10c00917 	ldw	r3,36(r2)
 3081d0c:	e0bfef17 	ldw	r2,-68(fp)
 3081d10:	d8800015 	stw	r2,0(sp)
 3081d14:	e13feb17 	ldw	r4,-84(fp)
 3081d18:	e17fec17 	ldw	r5,-80(fp)
 3081d1c:	e1bfed17 	ldw	r6,-76(fp)
 3081d20:	e1ffee17 	ldw	r7,-72(fp)
 3081d24:	183ee83a 	callr	r3
 3081d28:	e0bff015 	stw	r2,-64(fp)

  if(!ret_code)
 3081d2c:	e0bff017 	ldw	r2,-64(fp)
 3081d30:	1004c03a 	cmpne	r2,r2,zero
 3081d34:	1000071e 	bne	r2,zero,3081d54 <Flash_Write+0x19c>
      alt_dcache_flush((alt_u8*)fd->base_addr + data_offset, length);
 3081d38:	e0bfeb17 	ldw	r2,-84(fp)
 3081d3c:	10800a17 	ldw	r2,40(r2)
 3081d40:	1007883a 	mov	r3,r2
 3081d44:	e0bfed17 	ldw	r2,-76(fp)
 3081d48:	1889883a 	add	r4,r3,r2
 3081d4c:	e17fef17 	ldw	r5,-68(fp)
 3081d50:	30954380 	call	3095438 <alt_dcache_flush>

  return ret_code;
 3081d54:	e0bff017 	ldw	r2,-64(fp)
 3081d58:	e0bff815 	stw	r2,-32(fp)
                //FLASH_DEBUG(("alt_write_flash_block, block_offset:%d, offset:%d, len:%d, this block_size:%d\r\n", block_offset, offset+write_count, this_write_size, block_size));
                if (error_code != 0){
 3081d5c:	e0bff817 	ldw	r2,-32(fp)
 3081d60:	1005003a 	cmpeq	r2,r2,zero
 3081d64:	1000051e 	bne	r2,zero,3081d7c <Flash_Write+0x1c4>
                    bSuccess = FALSE;
 3081d68:	e03ff915 	stw	zero,-28(fp)
                    FLASH_DEBUG(("alt_write_flash_block fail, error_code=%d\r\n", error_code));
 3081d6c:	01008034 	movhi	r4,512
 3081d70:	2100c904 	addi	r4,r4,804
 3081d74:	e17ff817 	ldw	r5,-32(fp)
 3081d78:	30815b40 	call	30815b4 <myprintf>
                }    
                write_count += this_write_size;
 3081d7c:	e0bff517 	ldw	r2,-44(fp)
 3081d80:	e0fff417 	ldw	r3,-48(fp)
 3081d84:	10c5883a 	add	r2,r2,r3
 3081d88:	e0bff515 	stw	r2,-44(fp)
            }
            block_offset += block_size;
 3081d8c:	e0fff717 	ldw	r3,-36(fp)
 3081d90:	e0bff617 	ldw	r2,-40(fp)
 3081d94:	1885883a 	add	r2,r3,r2
 3081d98:	e0bff715 	stw	r2,-36(fp)

    
    block_offset = 0;
    write_count = 0;
    for(r=0;r<pFlash->number_of_regions_flash && bSuccess;r++){
        for(i=0;i<nextreg->number_of_blocks && bSuccess;i++){
 3081d9c:	e0bff217 	ldw	r2,-56(fp)
 3081da0:	10800044 	addi	r2,r2,1
 3081da4:	e0bff215 	stw	r2,-56(fp)
 3081da8:	e0bff117 	ldw	r2,-60(fp)
 3081dac:	10c00217 	ldw	r3,8(r2)
 3081db0:	e0bff217 	ldw	r2,-56(fp)
 3081db4:	10c0030e 	bge	r2,r3,3081dc4 <Flash_Write+0x20c>
 3081db8:	e0bff917 	ldw	r2,-28(fp)
 3081dbc:	1004c03a 	cmpne	r2,r2,zero
 3081dc0:	103f981e 	bne	r2,zero,3081c24 <Flash_Write+0x6c>
                }    
                write_count += this_write_size;
            }
            block_offset += block_size;
        }
        nextreg++;
 3081dc4:	e0bff117 	ldw	r2,-60(fp)
 3081dc8:	10800404 	addi	r2,r2,16
 3081dcc:	e0bff115 	stw	r2,-60(fp)
    flash_region *nextreg = pFlash->regions_flash;

    
    block_offset = 0;
    write_count = 0;
    for(r=0;r<pFlash->number_of_regions_flash && bSuccess;r++){
 3081dd0:	e0bff317 	ldw	r2,-52(fp)
 3081dd4:	10800044 	addi	r2,r2,1
 3081dd8:	e0bff315 	stw	r2,-52(fp)
 3081ddc:	e0bffa17 	ldw	r2,-24(fp)
 3081de0:	10c00217 	ldw	r3,8(r2)
 3081de4:	e0bff317 	ldw	r2,-52(fp)
 3081de8:	10c0030e 	bge	r2,r3,3081df8 <Flash_Write+0x240>
 3081dec:	e0bff917 	ldw	r2,-28(fp)
 3081df0:	1004c03a 	cmpne	r2,r2,zero
 3081df4:	103f891e 	bne	r2,zero,3081c1c <Flash_Write+0x64>
    error_code = alt_write_flash(fd_flash, offset, szData, size); // it will erase flash block content before write data
//    error_code = alt_write_flash_block(fd_flash, offset, offset+size, szData, size); // it will preserve flash content
    if (error_code == 0)
        return TRUE;
*/        
    return bSuccess;                    
 3081df8:	e0bff917 	ldw	r2,-28(fp)
 3081dfc:	e0bfff15 	stw	r2,-4(fp)
 3081e00:	e0bfff17 	ldw	r2,-4(fp)
}
 3081e04:	e037883a 	mov	sp,fp
 3081e08:	dfc00117 	ldw	ra,4(sp)
 3081e0c:	df000017 	ldw	fp,0(sp)
 3081e10:	dec00204 	addi	sp,sp,8
 3081e14:	f800283a 	ret

03081e18 <Flash_Erase>:

bool Flash_Erase(FLASH_HANDLE Handle, alt_u16 block_index){
 3081e18:	defff204 	addi	sp,sp,-56
 3081e1c:	dfc00d15 	stw	ra,52(sp)
 3081e20:	df000c15 	stw	fp,48(sp)
 3081e24:	df000c04 	addi	fp,sp,48
 3081e28:	e13ffd15 	stw	r4,-12(fp)
 3081e2c:	e17ffe0d 	sth	r5,-8(fp)
    FLASH_INFO *pFlash = (FLASH_INFO *)Handle;
 3081e30:	e0bffd17 	ldw	r2,-12(fp)
 3081e34:	e0bffa15 	stw	r2,-24(fp)
    if (!pFlash->fd_flash)
 3081e38:	e0bffa17 	ldw	r2,-24(fp)
 3081e3c:	10800017 	ldw	r2,0(r2)
 3081e40:	1004c03a 	cmpne	r2,r2,zero
 3081e44:	1000021e 	bne	r2,zero,3081e50 <Flash_Erase+0x38>
        return FALSE;
 3081e48:	e03fff15 	stw	zero,-4(fp)
 3081e4c:	00002906 	br	3081ef4 <Flash_Erase+0xdc>
    alt_u32 offset;
    alt_u32 length;        
    int error_code;
    bool bSuccess = FALSE;
 3081e50:	e03ff815 	stw	zero,-32(fp)

    
    if (Flash_GetBlockInfo(Handle, block_index, &offset, &length)){
 3081e54:	e17ffe0b 	ldhu	r5,-8(fp)
 3081e58:	e1bffb04 	addi	r6,fp,-20
 3081e5c:	e1fffc04 	addi	r7,fp,-16
 3081e60:	e13ffd17 	ldw	r4,-12(fp)
 3081e64:	30819c40 	call	30819c4 <Flash_GetBlockInfo>
 3081e68:	1005003a 	cmpeq	r2,r2,zero
 3081e6c:	10001f1e 	bne	r2,zero,3081eec <Flash_Erase+0xd4>
        error_code = alt_erase_flash_block(pFlash->fd_flash, offset, length);
 3081e70:	e0bffa17 	ldw	r2,-24(fp)
 3081e74:	10c00017 	ldw	r3,0(r2)
 3081e78:	e0bffb17 	ldw	r2,-20(fp)
 3081e7c:	1009883a 	mov	r4,r2
 3081e80:	e0bffc17 	ldw	r2,-16(fp)
 3081e84:	e0fff415 	stw	r3,-48(fp)
 3081e88:	e13ff515 	stw	r4,-44(fp)
 3081e8c:	e0bff615 	stw	r2,-40(fp)
 */
static __inline__ int __attribute__ ((always_inline)) alt_erase_flash_block( 
                                      alt_flash_fd* fd, int offset, int length) 
{
  int ret_code;
  ret_code = fd->erase_block( fd, offset );
 3081e90:	e0bff417 	ldw	r2,-48(fp)
 3081e94:	10800817 	ldw	r2,32(r2)
 3081e98:	e13ff417 	ldw	r4,-48(fp)
 3081e9c:	e17ff517 	ldw	r5,-44(fp)
 3081ea0:	103ee83a 	callr	r2
 3081ea4:	e0bff715 	stw	r2,-36(fp)
  
  if(!ret_code)
 3081ea8:	e0bff717 	ldw	r2,-36(fp)
 3081eac:	1004c03a 	cmpne	r2,r2,zero
 3081eb0:	1000071e 	bne	r2,zero,3081ed0 <Flash_Erase+0xb8>
      alt_dcache_flush((alt_u8*)fd->base_addr + offset, length);
 3081eb4:	e0bff417 	ldw	r2,-48(fp)
 3081eb8:	10800a17 	ldw	r2,40(r2)
 3081ebc:	1007883a 	mov	r3,r2
 3081ec0:	e0bff517 	ldw	r2,-44(fp)
 3081ec4:	1889883a 	add	r4,r3,r2
 3081ec8:	e17ff617 	ldw	r5,-40(fp)
 3081ecc:	30954380 	call	3095438 <alt_dcache_flush>

  return ret_code;
 3081ed0:	e0bff717 	ldw	r2,-36(fp)
 3081ed4:	e0bff915 	stw	r2,-28(fp)
        //DEBUG_FLASH("Erase block[%d], offset=%Xh, lenght=%Xh", block_no, offset, length);
        if (error_code == 0)
 3081ed8:	e0bff917 	ldw	r2,-28(fp)
 3081edc:	1004c03a 	cmpne	r2,r2,zero
 3081ee0:	1000021e 	bne	r2,zero,3081eec <Flash_Erase+0xd4>
            bSuccess = TRUE;
 3081ee4:	00800044 	movi	r2,1
 3081ee8:	e0bff815 	stw	r2,-32(fp)
    }        
    
    return bSuccess;    
 3081eec:	e0bff817 	ldw	r2,-32(fp)
 3081ef0:	e0bfff15 	stw	r2,-4(fp)
 3081ef4:	e0bfff17 	ldw	r2,-4(fp)
}
 3081ef8:	e037883a 	mov	sp,fp
 3081efc:	dfc00117 	ldw	ra,4(sp)
 3081f00:	df000017 	ldw	fp,0(sp)
 3081f04:	dec00204 	addi	sp,sp,8
 3081f08:	f800283a 	ret

03081f0c <Flash_GetBlockCount>:

alt_u16 Flash_GetBlockCount(FLASH_HANDLE Handle){
 3081f0c:	defffa04 	addi	sp,sp,-24
 3081f10:	df000515 	stw	fp,20(sp)
 3081f14:	df000504 	addi	fp,sp,20
 3081f18:	e13fff15 	stw	r4,-4(fp)
    FLASH_INFO *pFlash = (FLASH_INFO *)Handle;    
 3081f1c:	e0bfff17 	ldw	r2,-4(fp)
 3081f20:	e0bffe15 	stw	r2,-8(fp)
    alt_u16 no=0;
 3081f24:	e03ffd0d 	sth	zero,-12(fp)
    flash_region *nextreg = pFlash->regions_flash;
 3081f28:	e0bffe17 	ldw	r2,-8(fp)
 3081f2c:	10800117 	ldw	r2,4(r2)
 3081f30:	e0bffc15 	stw	r2,-16(fp)
    int r;
    for(r=0;r<pFlash->number_of_regions_flash;r++){
 3081f34:	e03ffb15 	stw	zero,-20(fp)
 3081f38:	00000c06 	br	3081f6c <Flash_GetBlockCount+0x60>
        no += nextreg->number_of_blocks;
 3081f3c:	e0bffc17 	ldw	r2,-16(fp)
 3081f40:	10800217 	ldw	r2,8(r2)
 3081f44:	1007883a 	mov	r3,r2
 3081f48:	e0bffd0b 	ldhu	r2,-12(fp)
 3081f4c:	10c5883a 	add	r2,r2,r3
 3081f50:	e0bffd0d 	sth	r2,-12(fp)
        nextreg++;
 3081f54:	e0bffc17 	ldw	r2,-16(fp)
 3081f58:	10800404 	addi	r2,r2,16
 3081f5c:	e0bffc15 	stw	r2,-16(fp)
alt_u16 Flash_GetBlockCount(FLASH_HANDLE Handle){
    FLASH_INFO *pFlash = (FLASH_INFO *)Handle;    
    alt_u16 no=0;
    flash_region *nextreg = pFlash->regions_flash;
    int r;
    for(r=0;r<pFlash->number_of_regions_flash;r++){
 3081f60:	e0bffb17 	ldw	r2,-20(fp)
 3081f64:	10800044 	addi	r2,r2,1
 3081f68:	e0bffb15 	stw	r2,-20(fp)
 3081f6c:	e0bffe17 	ldw	r2,-8(fp)
 3081f70:	10c00217 	ldw	r3,8(r2)
 3081f74:	e0bffb17 	ldw	r2,-20(fp)
 3081f78:	10fff016 	blt	r2,r3,3081f3c <Flash_GetBlockCount+0x30>
        no += nextreg->number_of_blocks;
        nextreg++;
    }
    return no;
 3081f7c:	e0bffd0b 	ldhu	r2,-12(fp)
}
 3081f80:	e037883a 	mov	sp,fp
 3081f84:	df000017 	ldw	fp,0(sp)
 3081f88:	dec00104 	addi	sp,sp,4
 3081f8c:	f800283a 	ret

03081f90 <Flash_Size>:


alt_u32 Flash_Size(char *pFlashName){
 3081f90:	defff304 	addi	sp,sp,-52
 3081f94:	dfc00c15 	stw	ra,48(sp)
 3081f98:	df000b15 	stw	fp,44(sp)
 3081f9c:	df000b04 	addi	fp,sp,44
 3081fa0:	e13fff15 	stw	r4,-4(fp)
    alt_u32 FlashSize = 0;
 3081fa4:	e03ffc15 	stw	zero,-16(fp)
    flash_region *regions, *nextreg;
    alt_flash_fd* fd;
    int number_of_regions;
    int ret_code, i;
    /* Set write_data to all 0xa */
    fd = alt_flash_open_dev(pFlashName);
 3081fa8:	e13fff17 	ldw	r4,-4(fp)
 3081fac:	30955200 	call	3095520 <alt_flash_open_dev>
 3081fb0:	e0bffa15 	stw	r2,-24(fp)
    if (fd){
 3081fb4:	e0bffa17 	ldw	r2,-24(fp)
 3081fb8:	1005003a 	cmpeq	r2,r2,zero
 3081fbc:	1000281e 	bne	r2,zero,3082060 <Flash_Size+0xd0>
 3081fc0:	e0bffa17 	ldw	r2,-24(fp)
 3081fc4:	e0bff515 	stw	r2,-44(fp)
 3081fc8:	e0bffd04 	addi	r2,fp,-12
 3081fcc:	e0bff615 	stw	r2,-40(fp)
 3081fd0:	e0bffe04 	addi	r2,fp,-8
 3081fd4:	e0bff715 	stw	r2,-36(fp)
 */
static __inline__ int __attribute__ ((always_inline)) alt_get_flash_info( 
                                      alt_flash_fd* fd, flash_region** info, 
                                      int* number_of_regions)
{
  return fd->get_info( fd, info, number_of_regions);
 3081fd8:	e0bff517 	ldw	r2,-44(fp)
 3081fdc:	10800717 	ldw	r2,28(r2)
 3081fe0:	e13ff517 	ldw	r4,-44(fp)
 3081fe4:	e17ff617 	ldw	r5,-40(fp)
 3081fe8:	e1bff717 	ldw	r6,-36(fp)
 3081fec:	103ee83a 	callr	r2
        ret_code = alt_get_flash_info(fd,&regions,&number_of_regions);
 3081ff0:	e0bff915 	stw	r2,-28(fp)
        if (ret_code == 0 && number_of_regions >= 1){
 3081ff4:	e0bff917 	ldw	r2,-28(fp)
 3081ff8:	1004c03a 	cmpne	r2,r2,zero
 3081ffc:	1000161e 	bne	r2,zero,3082058 <Flash_Size+0xc8>
 3082000:	e0bffe17 	ldw	r2,-8(fp)
 3082004:	10800050 	cmplti	r2,r2,1
 3082008:	1000131e 	bne	r2,zero,3082058 <Flash_Size+0xc8>
            nextreg = regions;
 308200c:	e0bffd17 	ldw	r2,-12(fp)
 3082010:	e0bffb15 	stw	r2,-20(fp)
            for(i=0;i<number_of_regions;i++){
 3082014:	e03ff815 	stw	zero,-32(fp)
 3082018:	00000c06 	br	308204c <Flash_Size+0xbc>
                FlashSize += nextreg->region_size;
 308201c:	e0bffb17 	ldw	r2,-20(fp)
 3082020:	10800117 	ldw	r2,4(r2)
 3082024:	1007883a 	mov	r3,r2
 3082028:	e0bffc17 	ldw	r2,-16(fp)
 308202c:	10c5883a 	add	r2,r2,r3
 3082030:	e0bffc15 	stw	r2,-16(fp)
                nextreg++;
 3082034:	e0bffb17 	ldw	r2,-20(fp)
 3082038:	10800404 	addi	r2,r2,16
 308203c:	e0bffb15 	stw	r2,-20(fp)
    fd = alt_flash_open_dev(pFlashName);
    if (fd){
        ret_code = alt_get_flash_info(fd,&regions,&number_of_regions);
        if (ret_code == 0 && number_of_regions >= 1){
            nextreg = regions;
            for(i=0;i<number_of_regions;i++){
 3082040:	e0bff817 	ldw	r2,-32(fp)
 3082044:	10800044 	addi	r2,r2,1
 3082048:	e0bff815 	stw	r2,-32(fp)
 308204c:	e0fffe17 	ldw	r3,-8(fp)
 3082050:	e0bff817 	ldw	r2,-32(fp)
 3082054:	10fff116 	blt	r2,r3,308201c <Flash_Size+0x8c>
                FlashSize += nextreg->region_size;
                nextreg++;
            }
        }
        alt_flash_close_dev(fd);
 3082058:	e13ffa17 	ldw	r4,-24(fp)
 308205c:	309559c0 	call	309559c <alt_flash_close_dev>
    }
    return FlashSize;
 3082060:	e0bffc17 	ldw	r2,-16(fp)
}    
 3082064:	e037883a 	mov	sp,fp
 3082068:	dfc00117 	ldw	ra,4(sp)
 308206c:	df000017 	ldw	fp,0(sp)
 3082070:	dec00204 	addi	sp,sp,8
 3082074:	f800283a 	ret

03082078 <FLASH_Verify>:



// bQuick=TRUE: just check first and last block 
bool FLASH_Verify(char *pFlashName, alt_u8 InitValue, bool bShowMessage, bool bQuickVerify){
 3082078:	deffea04 	addi	sp,sp,-88
 308207c:	dfc01515 	stw	ra,84(sp)
 3082080:	df001415 	stw	fp,80(sp)
 3082084:	df001404 	addi	fp,sp,80
 3082088:	e13ffb15 	stw	r4,-20(fp)
 308208c:	e1bffd15 	stw	r6,-12(fp)
 3082090:	e1fffe15 	stw	r7,-8(fp)
 3082094:	e17ffc05 	stb	r5,-16(fp)
    bool bPass = TRUE;
 3082098:	00800044 	movi	r2,1
 308209c:	e0bff815 	stw	r2,-32(fp)
    int i, k, BlockNum;
    FLASH_HANDLE hFlash;
    alt_u32 Offset, Size;
    alt_u8 *pBuf, Cnt;
    const int nBufSize = 8*1024; // 16K
 30820a0:	00880004 	movi	r2,8192
 30820a4:	e0bff115 	stw	r2,-60(fp)
    int nWriteSizeSum, nWriteSize;
    int nReadSizeSum, nReadSize;
    
    hFlash = Flash_Open(pFlashName);
 30820a8:	e13ffb17 	ldw	r4,-20(fp)
 30820ac:	308189c0 	call	308189c <Flash_Open>
 30820b0:	e0bff415 	stw	r2,-48(fp)
    if (!hFlash){
 30820b4:	e0bff417 	ldw	r2,-48(fp)
 30820b8:	1004c03a 	cmpne	r2,r2,zero
 30820bc:	1000081e 	bne	r2,zero,30820e0 <FLASH_Verify+0x68>
        if (bShowMessage)
 30820c0:	e0bffd17 	ldw	r2,-12(fp)
 30820c4:	1005003a 	cmpeq	r2,r2,zero
 30820c8:	1000031e 	bne	r2,zero,30820d8 <FLASH_Verify+0x60>
            printf("Failed to open flash.\r\n");
 30820cc:	01008034 	movhi	r4,512
 30820d0:	2100d404 	addi	r4,r4,848
 30820d4:	308e0180 	call	308e018 <puts>
        return FALSE;
 30820d8:	e03fff15 	stw	zero,-4(fp)
 30820dc:	00014c06 	br	3082610 <FLASH_Verify+0x598>
    }        
        
        
    BlockNum = Flash_GetBlockCount(hFlash);
 30820e0:	e13ff417 	ldw	r4,-48(fp)
 30820e4:	3081f0c0 	call	3081f0c <Flash_GetBlockCount>
 30820e8:	10bfffcc 	andi	r2,r2,65535
 30820ec:	e0bff515 	stw	r2,-44(fp)
    
    //===== alloc buffer
    pBuf = (alt_u8 *)malloc(nBufSize);
 30820f0:	e13ff117 	ldw	r4,-60(fp)
 30820f4:	308d5d80 	call	308d5d8 <malloc>
 30820f8:	e0bff315 	stw	r2,-52(fp)
    if (!pBuf){
 30820fc:	e0bff317 	ldw	r2,-52(fp)
 3082100:	1004c03a 	cmpne	r2,r2,zero
 3082104:	1000081e 	bne	r2,zero,3082128 <FLASH_Verify+0xb0>
        if (bShowMessage)
 3082108:	e0bffd17 	ldw	r2,-12(fp)
 308210c:	1005003a 	cmpeq	r2,r2,zero
 3082110:	1000031e 	bne	r2,zero,3082120 <FLASH_Verify+0xa8>
            printf("[Error] Failed to alloc memory.\r\n");
 3082114:	01008034 	movhi	r4,512
 3082118:	2100da04 	addi	r4,r4,872
 308211c:	308e0180 	call	308e018 <puts>
        return FALSE;
 3082120:	e03fff15 	stw	zero,-4(fp)
 3082124:	00013a06 	br	3082610 <FLASH_Verify+0x598>
    }        
    
    
    //===== erase
    for(i=0;i<BlockNum && bPass;i++){
 3082128:	e03ff715 	stw	zero,-36(fp)
 308212c:	00002306 	br	30821bc <FLASH_Verify+0x144>
        if (bQuickVerify && (i !=0 )&& (i != (BlockNum-1)))
 3082130:	e0bffe17 	ldw	r2,-8(fp)
 3082134:	1005003a 	cmpeq	r2,r2,zero
 3082138:	1000071e 	bne	r2,zero,3082158 <FLASH_Verify+0xe0>
 308213c:	e0bff717 	ldw	r2,-36(fp)
 3082140:	1005003a 	cmpeq	r2,r2,zero
 3082144:	1000041e 	bne	r2,zero,3082158 <FLASH_Verify+0xe0>
 3082148:	e0bff517 	ldw	r2,-44(fp)
 308214c:	10ffffc4 	addi	r3,r2,-1
 3082150:	e0bff717 	ldw	r2,-36(fp)
 3082154:	1880161e 	bne	r3,r2,30821b0 <FLASH_Verify+0x138>
            continue;
        bPass = Flash_Erase(hFlash, i);
 3082158:	e0bff717 	ldw	r2,-36(fp)
 308215c:	117fffcc 	andi	r5,r2,65535
 3082160:	e13ff417 	ldw	r4,-48(fp)
 3082164:	3081e180 	call	3081e18 <Flash_Erase>
 3082168:	e0bff815 	stw	r2,-32(fp)
        if (bShowMessage){
 308216c:	e0bffd17 	ldw	r2,-12(fp)
 3082170:	1005003a 	cmpeq	r2,r2,zero
 3082174:	10000e1e 	bne	r2,zero,30821b0 <FLASH_Verify+0x138>
            if (!bPass)
 3082178:	e0bff817 	ldw	r2,-32(fp)
 308217c:	1004c03a 	cmpne	r2,r2,zero
 3082180:	1000061e 	bne	r2,zero,308219c <FLASH_Verify+0x124>
                printf("[Error] Failed to erase flash block %d/%d\r\n.\r\n", i, BlockNum);
 3082184:	01008034 	movhi	r4,512
 3082188:	2100e304 	addi	r4,r4,908
 308218c:	e17ff717 	ldw	r5,-36(fp)
 3082190:	e1bff517 	ldw	r6,-44(fp)
 3082194:	308dedc0 	call	308dedc <printf>
 3082198:	00000506 	br	30821b0 <FLASH_Verify+0x138>
            else
                printf("Erase Block %d/%d\r\n", i, BlockNum);
 308219c:	01008034 	movhi	r4,512
 30821a0:	2100ef04 	addi	r4,r4,956
 30821a4:	e17ff717 	ldw	r5,-36(fp)
 30821a8:	e1bff517 	ldw	r6,-44(fp)
 30821ac:	308dedc0 	call	308dedc <printf>
        return FALSE;
    }        
    
    
    //===== erase
    for(i=0;i<BlockNum && bPass;i++){
 30821b0:	e0bff717 	ldw	r2,-36(fp)
 30821b4:	10800044 	addi	r2,r2,1
 30821b8:	e0bff715 	stw	r2,-36(fp)
 30821bc:	e0fff717 	ldw	r3,-36(fp)
 30821c0:	e0bff517 	ldw	r2,-44(fp)
 30821c4:	1880030e 	bge	r3,r2,30821d4 <FLASH_Verify+0x15c>
 30821c8:	e0bff817 	ldw	r2,-32(fp)
 30821cc:	1004c03a 	cmpne	r2,r2,zero
 30821d0:	103fd71e 	bne	r2,zero,3082130 <FLASH_Verify+0xb8>
                printf("Erase Block %d/%d\r\n", i, BlockNum);
        }            
    }        
    
    //===== write
    if (bPass){
 30821d4:	e0bff817 	ldw	r2,-32(fp)
 30821d8:	1005003a 	cmpeq	r2,r2,zero
 30821dc:	1000681e 	bne	r2,zero,3082380 <FLASH_Verify+0x308>
        Cnt = InitValue;
 30821e0:	e0bffc03 	ldbu	r2,-16(fp)
 30821e4:	e0bff205 	stb	r2,-56(fp)
        for(i=0;i<BlockNum && bPass;i++){
 30821e8:	e03ff715 	stw	zero,-36(fp)
 30821ec:	00005e06 	br	3082368 <FLASH_Verify+0x2f0>
            if (bQuickVerify && (i !=0 )&& (i != (BlockNum-1)))
 30821f0:	e0bffe17 	ldw	r2,-8(fp)
 30821f4:	1005003a 	cmpeq	r2,r2,zero
 30821f8:	1000071e 	bne	r2,zero,3082218 <FLASH_Verify+0x1a0>
 30821fc:	e0bff717 	ldw	r2,-36(fp)
 3082200:	1005003a 	cmpeq	r2,r2,zero
 3082204:	1000041e 	bne	r2,zero,3082218 <FLASH_Verify+0x1a0>
 3082208:	e0bff517 	ldw	r2,-44(fp)
 308220c:	10ffffc4 	addi	r3,r2,-1
 3082210:	e0bff717 	ldw	r2,-36(fp)
 3082214:	1880511e 	bne	r3,r2,308235c <FLASH_Verify+0x2e4>
                continue;
            
            bPass = Flash_GetBlockInfo(hFlash, i, &Offset, &Size);
 3082218:	e0bff717 	ldw	r2,-36(fp)
 308221c:	117fffcc 	andi	r5,r2,65535
 3082220:	e1bff904 	addi	r6,fp,-28
 3082224:	e1fffa04 	addi	r7,fp,-24
 3082228:	e13ff417 	ldw	r4,-48(fp)
 308222c:	30819c40 	call	30819c4 <Flash_GetBlockInfo>
 3082230:	e0bff815 	stw	r2,-32(fp)
            if (!bPass)
 3082234:	e0bff817 	ldw	r2,-32(fp)
 3082238:	1005003a 	cmpeq	r2,r2,zero
 308223c:	1000471e 	bne	r2,zero,308235c <FLASH_Verify+0x2e4>
                continue;
                
            if (bShowMessage)            
 3082240:	e0bffd17 	ldw	r2,-12(fp)
 3082244:	1005003a 	cmpeq	r2,r2,zero
 3082248:	1000071e 	bne	r2,zero,3082268 <FLASH_Verify+0x1f0>
                printf("Write Block[%d/%d], size=%d\r\n", i, BlockNum, (int)Size);
 308224c:	e0bffa17 	ldw	r2,-24(fp)
 3082250:	100f883a 	mov	r7,r2
 3082254:	01008034 	movhi	r4,512
 3082258:	2100f404 	addi	r4,r4,976
 308225c:	e17ff717 	ldw	r5,-36(fp)
 3082260:	e1bff517 	ldw	r6,-44(fp)
 3082264:	308dedc0 	call	308dedc <printf>
            nWriteSizeSum = 0;
 3082268:	e03ff015 	stw	zero,-64(fp)
            while(nWriteSizeSum < Size && bPass){
 308226c:	00003506 	br	3082344 <FLASH_Verify+0x2cc>
                // cal write size
                nWriteSize = nBufSize;
 3082270:	e0bff117 	ldw	r2,-60(fp)
 3082274:	e0bfef15 	stw	r2,-68(fp)
                if (nWriteSize > (Size - nWriteSizeSum))
 3082278:	e13fef17 	ldw	r4,-68(fp)
 308227c:	e0fffa17 	ldw	r3,-24(fp)
 3082280:	e0bff017 	ldw	r2,-64(fp)
 3082284:	1885c83a 	sub	r2,r3,r2
 3082288:	1100042e 	bgeu	r2,r4,308229c <FLASH_Verify+0x224>
                    nWriteSize = Size - nWriteSizeSum;
 308228c:	e0bffa17 	ldw	r2,-24(fp)
 3082290:	e0fff017 	ldw	r3,-64(fp)
 3082294:	10c5c83a 	sub	r2,r2,r3
 3082298:	e0bfef15 	stw	r2,-68(fp)
                // fill data
                for(k=0;k<nWriteSize;k++){
 308229c:	e03ff615 	stw	zero,-40(fp)
 30822a0:	00000c06 	br	30822d4 <FLASH_Verify+0x25c>
                    *(pBuf+k) = Cnt++;
 30822a4:	e0bff617 	ldw	r2,-40(fp)
 30822a8:	1007883a 	mov	r3,r2
 30822ac:	e0bff317 	ldw	r2,-52(fp)
 30822b0:	1887883a 	add	r3,r3,r2
 30822b4:	e0bff203 	ldbu	r2,-56(fp)
 30822b8:	18800005 	stb	r2,0(r3)
 30822bc:	e0bff203 	ldbu	r2,-56(fp)
 30822c0:	10800044 	addi	r2,r2,1
 30822c4:	e0bff205 	stb	r2,-56(fp)
                // cal write size
                nWriteSize = nBufSize;
                if (nWriteSize > (Size - nWriteSizeSum))
                    nWriteSize = Size - nWriteSizeSum;
                // fill data
                for(k=0;k<nWriteSize;k++){
 30822c8:	e0bff617 	ldw	r2,-40(fp)
 30822cc:	10800044 	addi	r2,r2,1
 30822d0:	e0bff615 	stw	r2,-40(fp)
 30822d4:	e0fff617 	ldw	r3,-40(fp)
 30822d8:	e0bfef17 	ldw	r2,-68(fp)
 30822dc:	18bff116 	blt	r3,r2,30822a4 <FLASH_Verify+0x22c>
                    *(pBuf+k) = Cnt++;
                }                     
                // write data block
                bPass = Flash_Write(hFlash, Offset+nWriteSizeSum, pBuf, nWriteSize);
 30822e0:	e0fff917 	ldw	r3,-28(fp)
 30822e4:	e0bff017 	ldw	r2,-64(fp)
 30822e8:	188b883a 	add	r5,r3,r2
 30822ec:	e1ffef17 	ldw	r7,-68(fp)
 30822f0:	e13ff417 	ldw	r4,-48(fp)
 30822f4:	e1bff317 	ldw	r6,-52(fp)
 30822f8:	3081bb80 	call	3081bb8 <Flash_Write>
 30822fc:	e0bff815 	stw	r2,-32(fp)
                if (bShowMessage && !bPass)            
 3082300:	e0bffd17 	ldw	r2,-12(fp)
 3082304:	1005003a 	cmpeq	r2,r2,zero
 3082308:	1000081e 	bne	r2,zero,308232c <FLASH_Verify+0x2b4>
 308230c:	e0bff817 	ldw	r2,-32(fp)
 3082310:	1004c03a 	cmpne	r2,r2,zero
 3082314:	1000051e 	bne	r2,zero,308232c <FLASH_Verify+0x2b4>
                    printf("[Error] Write Block[%d/%d] NG\r\n", i, BlockNum);
 3082318:	01008034 	movhi	r4,512
 308231c:	2100fc04 	addi	r4,r4,1008
 3082320:	e17ff717 	ldw	r5,-36(fp)
 3082324:	e1bff517 	ldw	r6,-44(fp)
 3082328:	308dedc0 	call	308dedc <printf>
                //
                usleep(20*1000);
 308232c:	01138804 	movi	r4,20000
 3082330:	30963040 	call	3096304 <usleep>
                //
                nWriteSizeSum += nWriteSize;
 3082334:	e0bff017 	ldw	r2,-64(fp)
 3082338:	e0ffef17 	ldw	r3,-68(fp)
 308233c:	10c5883a 	add	r2,r2,r3
 3082340:	e0bff015 	stw	r2,-64(fp)
                continue;
                
            if (bShowMessage)            
                printf("Write Block[%d/%d], size=%d\r\n", i, BlockNum, (int)Size);
            nWriteSizeSum = 0;
            while(nWriteSizeSum < Size && bPass){
 3082344:	e0fff017 	ldw	r3,-64(fp)
 3082348:	e0bffa17 	ldw	r2,-24(fp)
 308234c:	1880032e 	bgeu	r3,r2,308235c <FLASH_Verify+0x2e4>
 3082350:	e0bff817 	ldw	r2,-32(fp)
 3082354:	1004c03a 	cmpne	r2,r2,zero
 3082358:	103fc51e 	bne	r2,zero,3082270 <FLASH_Verify+0x1f8>
    }        
    
    //===== write
    if (bPass){
        Cnt = InitValue;
        for(i=0;i<BlockNum && bPass;i++){
 308235c:	e0bff717 	ldw	r2,-36(fp)
 3082360:	10800044 	addi	r2,r2,1
 3082364:	e0bff715 	stw	r2,-36(fp)
 3082368:	e0fff717 	ldw	r3,-36(fp)
 308236c:	e0bff517 	ldw	r2,-44(fp)
 3082370:	1880030e 	bge	r3,r2,3082380 <FLASH_Verify+0x308>
 3082374:	e0bff817 	ldw	r2,-32(fp)
 3082378:	1004c03a 	cmpne	r2,r2,zero
 308237c:	103f9c1e 	bne	r2,zero,30821f0 <FLASH_Verify+0x178>
                nWriteSizeSum += nWriteSize;
            }
        }
    }
  
    if (bPass){
 3082380:	e0bff817 	ldw	r2,-32(fp)
 3082384:	1005003a 	cmpeq	r2,r2,zero
 3082388:	1000071e 	bne	r2,zero,30823a8 <FLASH_Verify+0x330>
        if (bShowMessage)      
 308238c:	e0bffd17 	ldw	r2,-12(fp)
 3082390:	1005003a 	cmpeq	r2,r2,zero
 3082394:	1000031e 	bne	r2,zero,30823a4 <FLASH_Verify+0x32c>
            printf("alt_dcache_flush_all\r\n");
 3082398:	01008034 	movhi	r4,512
 308239c:	21010404 	addi	r4,r4,1040
 30823a0:	308e0180 	call	308e018 <puts>
        alt_dcache_flush_all();
 30823a4:	30954b00 	call	30954b0 <alt_dcache_flush_all>
    }        
      
    //===== read & verify
    if (bPass){
 30823a8:	e0bff817 	ldw	r2,-32(fp)
 30823ac:	1005003a 	cmpeq	r2,r2,zero
 30823b0:	10008b1e 	bne	r2,zero,30825e0 <FLASH_Verify+0x568>
        Cnt = InitValue;
 30823b4:	e0bffc03 	ldbu	r2,-16(fp)
 30823b8:	e0bff205 	stb	r2,-56(fp)
        for(i=0;i<BlockNum && bPass;i++){
 30823bc:	e03ff715 	stw	zero,-36(fp)
 30823c0:	00008106 	br	30825c8 <FLASH_Verify+0x550>
            if (bQuickVerify && (i !=0 )&& (i != (BlockNum-1)))
 30823c4:	e0bffe17 	ldw	r2,-8(fp)
 30823c8:	1005003a 	cmpeq	r2,r2,zero
 30823cc:	1000071e 	bne	r2,zero,30823ec <FLASH_Verify+0x374>
 30823d0:	e0bff717 	ldw	r2,-36(fp)
 30823d4:	1005003a 	cmpeq	r2,r2,zero
 30823d8:	1000041e 	bne	r2,zero,30823ec <FLASH_Verify+0x374>
 30823dc:	e0bff517 	ldw	r2,-44(fp)
 30823e0:	10ffffc4 	addi	r3,r2,-1
 30823e4:	e0bff717 	ldw	r2,-36(fp)
 30823e8:	1880741e 	bne	r3,r2,30825bc <FLASH_Verify+0x544>
                continue;
            
            bPass = Flash_GetBlockInfo(hFlash, i, &Offset, &Size);
 30823ec:	e0bff717 	ldw	r2,-36(fp)
 30823f0:	117fffcc 	andi	r5,r2,65535
 30823f4:	e1bff904 	addi	r6,fp,-28
 30823f8:	e1fffa04 	addi	r7,fp,-24
 30823fc:	e13ff417 	ldw	r4,-48(fp)
 3082400:	30819c40 	call	30819c4 <Flash_GetBlockInfo>
 3082404:	e0bff815 	stw	r2,-32(fp)
            if (!bPass){
 3082408:	e0bff817 	ldw	r2,-32(fp)
 308240c:	1004c03a 	cmpne	r2,r2,zero
 3082410:	1000081e 	bne	r2,zero,3082434 <FLASH_Verify+0x3bc>
                if (bShowMessage)      
 3082414:	e0bffd17 	ldw	r2,-12(fp)
 3082418:	1005003a 	cmpeq	r2,r2,zero
 308241c:	1000671e 	bne	r2,zero,30825bc <FLASH_Verify+0x544>
                    printf("[Error] Flash_GetBlockInfo at block %d\r\n", i);
 3082420:	01008034 	movhi	r4,512
 3082424:	21010a04 	addi	r4,r4,1064
 3082428:	e17ff717 	ldw	r5,-36(fp)
 308242c:	308dedc0 	call	308dedc <printf>
                continue;
 3082430:	00006206 	br	30825bc <FLASH_Verify+0x544>
            }    
            if (bShowMessage)            
 3082434:	e0bffd17 	ldw	r2,-12(fp)
 3082438:	1005003a 	cmpeq	r2,r2,zero
 308243c:	1000071e 	bne	r2,zero,308245c <FLASH_Verify+0x3e4>
                printf("Read Block[%d/%d], size=%d\r\n", i, BlockNum, (int)Size);
 3082440:	e0bffa17 	ldw	r2,-24(fp)
 3082444:	100f883a 	mov	r7,r2
 3082448:	01008034 	movhi	r4,512
 308244c:	21011504 	addi	r4,r4,1108
 3082450:	e17ff717 	ldw	r5,-36(fp)
 3082454:	e1bff517 	ldw	r6,-44(fp)
 3082458:	308dedc0 	call	308dedc <printf>
            nReadSizeSum = 0;
 308245c:	e03fee15 	stw	zero,-72(fp)
            while(nReadSizeSum < Size && bPass){
 3082460:	00005006 	br	30825a4 <FLASH_Verify+0x52c>
                // cal write size
                nReadSize = nBufSize;
 3082464:	e0bff117 	ldw	r2,-60(fp)
 3082468:	e0bfed15 	stw	r2,-76(fp)
                if (nReadSize > (Size - nReadSizeSum))
 308246c:	e13fed17 	ldw	r4,-76(fp)
 3082470:	e0fffa17 	ldw	r3,-24(fp)
 3082474:	e0bfee17 	ldw	r2,-72(fp)
 3082478:	1885c83a 	sub	r2,r3,r2
 308247c:	1100042e 	bgeu	r2,r4,3082490 <FLASH_Verify+0x418>
                    nReadSize = Size - nReadSizeSum;
 3082480:	e0bffa17 	ldw	r2,-24(fp)
 3082484:	e0ffee17 	ldw	r3,-72(fp)
 3082488:	10c5c83a 	sub	r2,r2,r3
 308248c:	e0bfed15 	stw	r2,-76(fp)
                    
                // read data block
                bPass = Flash_Read(hFlash, Offset+nReadSizeSum, pBuf, nReadSize);
 3082490:	e0fff917 	ldw	r3,-28(fp)
 3082494:	e0bfee17 	ldw	r2,-72(fp)
 3082498:	188b883a 	add	r5,r3,r2
 308249c:	e1ffed17 	ldw	r7,-76(fp)
 30824a0:	e13ff417 	ldw	r4,-48(fp)
 30824a4:	e1bff317 	ldw	r6,-52(fp)
 30824a8:	3081b000 	call	3081b00 <Flash_Read>
 30824ac:	e0bff815 	stw	r2,-32(fp)
                if (!bPass){
 30824b0:	e0bff817 	ldw	r2,-32(fp)
 30824b4:	1004c03a 	cmpne	r2,r2,zero
 30824b8:	10000c1e 	bne	r2,zero,30824ec <FLASH_Verify+0x474>
                    if (bShowMessage)      
 30824bc:	e0bffd17 	ldw	r2,-12(fp)
 30824c0:	1005003a 	cmpeq	r2,r2,zero
 30824c4:	1000331e 	bne	r2,zero,3082594 <FLASH_Verify+0x51c>
                        printf("[Error] Flash_Read fail at block-offset %d-%d\r\n", i, (int)Offset+nReadSizeSum);
 30824c8:	e0bff917 	ldw	r2,-28(fp)
 30824cc:	1007883a 	mov	r3,r2
 30824d0:	e0bfee17 	ldw	r2,-72(fp)
 30824d4:	188d883a 	add	r6,r3,r2
 30824d8:	01008034 	movhi	r4,512
 30824dc:	21011d04 	addi	r4,r4,1140
 30824e0:	e17ff717 	ldw	r5,-36(fp)
 30824e4:	308dedc0 	call	308dedc <printf>
 30824e8:	00002a06 	br	3082594 <FLASH_Verify+0x51c>
                }else{
                    // verify
                    // verify data
                    for(k=0;k<nReadSize && bPass;k++){
 30824ec:	e03ff615 	stw	zero,-40(fp)
 30824f0:	00002206 	br	308257c <FLASH_Verify+0x504>
                        if (*(pBuf+k) != Cnt){
 30824f4:	e0bff617 	ldw	r2,-40(fp)
 30824f8:	1007883a 	mov	r3,r2
 30824fc:	e0bff317 	ldw	r2,-52(fp)
 3082500:	1885883a 	add	r2,r3,r2
 3082504:	10800003 	ldbu	r2,0(r2)
 3082508:	10c03fcc 	andi	r3,r2,255
 308250c:	e0bff203 	ldbu	r2,-56(fp)
 3082510:	18801426 	beq	r3,r2,3082564 <FLASH_Verify+0x4ec>
                            if (bShowMessage)      
 3082514:	e0bffd17 	ldw	r2,-12(fp)
 3082518:	1005003a 	cmpeq	r2,r2,zero
 308251c:	10000f1e 	bne	r2,zero,308255c <FLASH_Verify+0x4e4>
                                printf("[Error] Verify fail, block:%d, index:%d, read=%Xh, expected=%Xh\r\n", i, nReadSizeSum+k, *(pBuf+k), Cnt);
 3082520:	e0ffee17 	ldw	r3,-72(fp)
 3082524:	e0bff617 	ldw	r2,-40(fp)
 3082528:	188d883a 	add	r6,r3,r2
 308252c:	e0bff617 	ldw	r2,-40(fp)
 3082530:	1007883a 	mov	r3,r2
 3082534:	e0bff317 	ldw	r2,-52(fp)
 3082538:	1885883a 	add	r2,r3,r2
 308253c:	10800003 	ldbu	r2,0(r2)
 3082540:	11c03fcc 	andi	r7,r2,255
 3082544:	e0bff203 	ldbu	r2,-56(fp)
 3082548:	d8800015 	stw	r2,0(sp)
 308254c:	01008034 	movhi	r4,512
 3082550:	21012904 	addi	r4,r4,1188
 3082554:	e17ff717 	ldw	r5,-36(fp)
 3082558:	308dedc0 	call	308dedc <printf>
                            bPass = FALSE;
 308255c:	e03ff815 	stw	zero,-32(fp)
 3082560:	00000306 	br	3082570 <FLASH_Verify+0x4f8>
                        }else{    
                            Cnt++;
 3082564:	e0bff203 	ldbu	r2,-56(fp)
 3082568:	10800044 	addi	r2,r2,1
 308256c:	e0bff205 	stb	r2,-56(fp)
                    if (bShowMessage)      
                        printf("[Error] Flash_Read fail at block-offset %d-%d\r\n", i, (int)Offset+nReadSizeSum);
                }else{
                    // verify
                    // verify data
                    for(k=0;k<nReadSize && bPass;k++){
 3082570:	e0bff617 	ldw	r2,-40(fp)
 3082574:	10800044 	addi	r2,r2,1
 3082578:	e0bff615 	stw	r2,-40(fp)
 308257c:	e0fff617 	ldw	r3,-40(fp)
 3082580:	e0bfed17 	ldw	r2,-76(fp)
 3082584:	1880030e 	bge	r3,r2,3082594 <FLASH_Verify+0x51c>
 3082588:	e0bff817 	ldw	r2,-32(fp)
 308258c:	1004c03a 	cmpne	r2,r2,zero
 3082590:	103fd81e 	bne	r2,zero,30824f4 <FLASH_Verify+0x47c>
                            Cnt++;
                        }
                    }                     
                }                        
                //
                nReadSizeSum += nReadSize;
 3082594:	e0bfee17 	ldw	r2,-72(fp)
 3082598:	e0ffed17 	ldw	r3,-76(fp)
 308259c:	10c5883a 	add	r2,r2,r3
 30825a0:	e0bfee15 	stw	r2,-72(fp)
                continue;
            }    
            if (bShowMessage)            
                printf("Read Block[%d/%d], size=%d\r\n", i, BlockNum, (int)Size);
            nReadSizeSum = 0;
            while(nReadSizeSum < Size && bPass){
 30825a4:	e0ffee17 	ldw	r3,-72(fp)
 30825a8:	e0bffa17 	ldw	r2,-24(fp)
 30825ac:	1880032e 	bgeu	r3,r2,30825bc <FLASH_Verify+0x544>
 30825b0:	e0bff817 	ldw	r2,-32(fp)
 30825b4:	1004c03a 	cmpne	r2,r2,zero
 30825b8:	103faa1e 	bne	r2,zero,3082464 <FLASH_Verify+0x3ec>
    }        
      
    //===== read & verify
    if (bPass){
        Cnt = InitValue;
        for(i=0;i<BlockNum && bPass;i++){
 30825bc:	e0bff717 	ldw	r2,-36(fp)
 30825c0:	10800044 	addi	r2,r2,1
 30825c4:	e0bff715 	stw	r2,-36(fp)
 30825c8:	e0fff717 	ldw	r3,-36(fp)
 30825cc:	e0bff517 	ldw	r2,-44(fp)
 30825d0:	1880030e 	bge	r3,r2,30825e0 <FLASH_Verify+0x568>
 30825d4:	e0bff817 	ldw	r2,-32(fp)
 30825d8:	1004c03a 	cmpne	r2,r2,zero
 30825dc:	103f791e 	bne	r2,zero,30823c4 <FLASH_Verify+0x34c>
                nReadSizeSum += nReadSize;
            }
        }  
    }
    
    if (pBuf)
 30825e0:	e0bff317 	ldw	r2,-52(fp)
 30825e4:	1005003a 	cmpeq	r2,r2,zero
 30825e8:	1000021e 	bne	r2,zero,30825f4 <FLASH_Verify+0x57c>
        free(pBuf);
 30825ec:	e13ff317 	ldw	r4,-52(fp)
 30825f0:	308d5c40 	call	308d5c4 <free>
    
    if (hFlash)
 30825f4:	e0bff417 	ldw	r2,-48(fp)
 30825f8:	1005003a 	cmpeq	r2,r2,zero
 30825fc:	1000021e 	bne	r2,zero,3082608 <FLASH_Verify+0x590>
        Flash_Close(hFlash);
 3082600:	e13ff417 	ldw	r4,-48(fp)
 3082604:	308196c0 	call	308196c <Flash_Close>
    
    //
    return bPass;
 3082608:	e0bff817 	ldw	r2,-32(fp)
 308260c:	e0bfff15 	stw	r2,-4(fp)
 3082610:	e0bfff17 	ldw	r2,-4(fp)
}
 3082614:	e037883a 	mov	sp,fp
 3082618:	dfc00117 	ldw	ra,4(sp)
 308261c:	df000017 	ldw	fp,0(sp)
 3082620:	dec00204 	addi	sp,sp,8
 3082624:	f800283a 	ret

03082628 <IsPtInRect>:

//#define BOUND(x, mini, maxi) ((x<(mini)?(mini):( (x>(maxi))?(maxi):(x) )))

//#define COPY_POINT(pt_des, pt_src)  memcpy(&pt_des, &pt_src,sizeof(POINT))

bool IsPtInRect(POINT *pt, RECT *rc){
 3082628:	defffc04 	addi	sp,sp,-16
 308262c:	df000315 	stw	fp,12(sp)
 3082630:	df000304 	addi	fp,sp,12
 3082634:	e13ffe15 	stw	r4,-8(fp)
 3082638:	e17fff15 	stw	r5,-4(fp)
    bool bYes = FALSE;
 308263c:	e03ffd15 	stw	zero,-12(fp)
    
    if (pt->x >= rc->left && pt->x <= rc->right && pt->y >= rc->top && pt->y <= rc->bottom)
 3082640:	e0bffe17 	ldw	r2,-8(fp)
 3082644:	10c00017 	ldw	r3,0(r2)
 3082648:	e0bfff17 	ldw	r2,-4(fp)
 308264c:	10800017 	ldw	r2,0(r2)
 3082650:	18801116 	blt	r3,r2,3082698 <IsPtInRect+0x70>
 3082654:	e0bffe17 	ldw	r2,-8(fp)
 3082658:	10c00017 	ldw	r3,0(r2)
 308265c:	e0bfff17 	ldw	r2,-4(fp)
 3082660:	10800117 	ldw	r2,4(r2)
 3082664:	10c00c16 	blt	r2,r3,3082698 <IsPtInRect+0x70>
 3082668:	e0bffe17 	ldw	r2,-8(fp)
 308266c:	10c00117 	ldw	r3,4(r2)
 3082670:	e0bfff17 	ldw	r2,-4(fp)
 3082674:	10800217 	ldw	r2,8(r2)
 3082678:	18800716 	blt	r3,r2,3082698 <IsPtInRect+0x70>
 308267c:	e0bffe17 	ldw	r2,-8(fp)
 3082680:	10c00117 	ldw	r3,4(r2)
 3082684:	e0bfff17 	ldw	r2,-4(fp)
 3082688:	10800317 	ldw	r2,12(r2)
 308268c:	10c00216 	blt	r2,r3,3082698 <IsPtInRect+0x70>
        bYes = TRUE;
 3082690:	00800044 	movi	r2,1
 3082694:	e0bffd15 	stw	r2,-12(fp)
    
    return bYes;
 3082698:	e0bffd17 	ldw	r2,-12(fp)
}
 308269c:	e037883a 	mov	sp,fp
 30826a0:	df000017 	ldw	fp,0(sp)
 30826a4:	dec00104 	addi	sp,sp,4
 30826a8:	f800283a 	ret

030826ac <PtSet>:

void PtSet(POINT *pt, int x, int y){
 30826ac:	defffc04 	addi	sp,sp,-16
 30826b0:	df000315 	stw	fp,12(sp)
 30826b4:	df000304 	addi	fp,sp,12
 30826b8:	e13ffd15 	stw	r4,-12(fp)
 30826bc:	e17ffe15 	stw	r5,-8(fp)
 30826c0:	e1bfff15 	stw	r6,-4(fp)
    pt->x = x;
 30826c4:	e0fffd17 	ldw	r3,-12(fp)
 30826c8:	e0bffe17 	ldw	r2,-8(fp)
 30826cc:	18800015 	stw	r2,0(r3)
    pt->y = y;
 30826d0:	e0fffd17 	ldw	r3,-12(fp)
 30826d4:	e0bfff17 	ldw	r2,-4(fp)
 30826d8:	18800115 	stw	r2,4(r3)
}
 30826dc:	e037883a 	mov	sp,fp
 30826e0:	df000017 	ldw	fp,0(sp)
 30826e4:	dec00104 	addi	sp,sp,4
 30826e8:	f800283a 	ret

030826ec <RectSet>:

void RectSet(RECT *rc, int left, int right, int top, int bottom){
 30826ec:	defffb04 	addi	sp,sp,-20
 30826f0:	df000415 	stw	fp,16(sp)
 30826f4:	df000404 	addi	fp,sp,16
 30826f8:	e13ffc15 	stw	r4,-16(fp)
 30826fc:	e17ffd15 	stw	r5,-12(fp)
 3082700:	e1bffe15 	stw	r6,-8(fp)
 3082704:	e1ffff15 	stw	r7,-4(fp)
    rc->left = left;
 3082708:	e0fffc17 	ldw	r3,-16(fp)
 308270c:	e0bffd17 	ldw	r2,-12(fp)
 3082710:	18800015 	stw	r2,0(r3)
    rc->right = right;
 3082714:	e0fffc17 	ldw	r3,-16(fp)
 3082718:	e0bffe17 	ldw	r2,-8(fp)
 308271c:	18800115 	stw	r2,4(r3)
    rc->top = top;
 3082720:	e0fffc17 	ldw	r3,-16(fp)
 3082724:	e0bfff17 	ldw	r2,-4(fp)
 3082728:	18800215 	stw	r2,8(r3)
    rc->bottom = bottom;
 308272c:	e0fffc17 	ldw	r3,-16(fp)
 3082730:	e0800117 	ldw	r2,4(fp)
 3082734:	18800315 	stw	r2,12(r3)
}
 3082738:	e037883a 	mov	sp,fp
 308273c:	df000017 	ldw	fp,0(sp)
 3082740:	dec00104 	addi	sp,sp,4
 3082744:	f800283a 	ret

03082748 <RectInflate>:

void RectInflate(RECT *rc, int x, int y){
 3082748:	defffc04 	addi	sp,sp,-16
 308274c:	df000315 	stw	fp,12(sp)
 3082750:	df000304 	addi	fp,sp,12
 3082754:	e13ffd15 	stw	r4,-12(fp)
 3082758:	e17ffe15 	stw	r5,-8(fp)
 308275c:	e1bfff15 	stw	r6,-4(fp)
    rc->left -= x;
 3082760:	e0bffd17 	ldw	r2,-12(fp)
 3082764:	10c00017 	ldw	r3,0(r2)
 3082768:	e0bffe17 	ldw	r2,-8(fp)
 308276c:	1887c83a 	sub	r3,r3,r2
 3082770:	e0bffd17 	ldw	r2,-12(fp)
 3082774:	10c00015 	stw	r3,0(r2)
    rc->right += x;
 3082778:	e0bffd17 	ldw	r2,-12(fp)
 308277c:	10c00117 	ldw	r3,4(r2)
 3082780:	e0bffe17 	ldw	r2,-8(fp)
 3082784:	1887883a 	add	r3,r3,r2
 3082788:	e0bffd17 	ldw	r2,-12(fp)
 308278c:	10c00115 	stw	r3,4(r2)
    rc->top -= y;
 3082790:	e0bffd17 	ldw	r2,-12(fp)
 3082794:	10c00217 	ldw	r3,8(r2)
 3082798:	e0bfff17 	ldw	r2,-4(fp)
 308279c:	1887c83a 	sub	r3,r3,r2
 30827a0:	e0bffd17 	ldw	r2,-12(fp)
 30827a4:	10c00215 	stw	r3,8(r2)
    rc->bottom += y;
 30827a8:	e0bffd17 	ldw	r2,-12(fp)
 30827ac:	10c00317 	ldw	r3,12(r2)
 30827b0:	e0bfff17 	ldw	r2,-4(fp)
 30827b4:	1887883a 	add	r3,r3,r2
 30827b8:	e0bffd17 	ldw	r2,-12(fp)
 30827bc:	10c00315 	stw	r3,12(r2)
}
 30827c0:	e037883a 	mov	sp,fp
 30827c4:	df000017 	ldw	fp,0(sp)
 30827c8:	dec00104 	addi	sp,sp,4
 30827cc:	f800283a 	ret

030827d0 <RectOffset>:

void RectOffset(RECT *rc, int x, int y){
 30827d0:	defffc04 	addi	sp,sp,-16
 30827d4:	df000315 	stw	fp,12(sp)
 30827d8:	df000304 	addi	fp,sp,12
 30827dc:	e13ffd15 	stw	r4,-12(fp)
 30827e0:	e17ffe15 	stw	r5,-8(fp)
 30827e4:	e1bfff15 	stw	r6,-4(fp)
    rc->left += x;
 30827e8:	e0bffd17 	ldw	r2,-12(fp)
 30827ec:	10c00017 	ldw	r3,0(r2)
 30827f0:	e0bffe17 	ldw	r2,-8(fp)
 30827f4:	1887883a 	add	r3,r3,r2
 30827f8:	e0bffd17 	ldw	r2,-12(fp)
 30827fc:	10c00015 	stw	r3,0(r2)
    rc->right += x;
 3082800:	e0bffd17 	ldw	r2,-12(fp)
 3082804:	10c00117 	ldw	r3,4(r2)
 3082808:	e0bffe17 	ldw	r2,-8(fp)
 308280c:	1887883a 	add	r3,r3,r2
 3082810:	e0bffd17 	ldw	r2,-12(fp)
 3082814:	10c00115 	stw	r3,4(r2)
    rc->top += y;
 3082818:	e0bffd17 	ldw	r2,-12(fp)
 308281c:	10c00217 	ldw	r3,8(r2)
 3082820:	e0bfff17 	ldw	r2,-4(fp)
 3082824:	1887883a 	add	r3,r3,r2
 3082828:	e0bffd17 	ldw	r2,-12(fp)
 308282c:	10c00215 	stw	r3,8(r2)
    rc->bottom += y;
 3082830:	e0bffd17 	ldw	r2,-12(fp)
 3082834:	10c00317 	ldw	r3,12(r2)
 3082838:	e0bfff17 	ldw	r2,-4(fp)
 308283c:	1887883a 	add	r3,r3,r2
 3082840:	e0bffd17 	ldw	r2,-12(fp)
 3082844:	10c00315 	stw	r3,12(r2)
}
 3082848:	e037883a 	mov	sp,fp
 308284c:	df000017 	ldw	fp,0(sp)
 3082850:	dec00104 	addi	sp,sp,4
 3082854:	f800283a 	ret

03082858 <RectCopy>:

void RectCopy(RECT *rcDes, RECT *rcSrc){
 3082858:	defffd04 	addi	sp,sp,-12
 308285c:	df000215 	stw	fp,8(sp)
 3082860:	df000204 	addi	fp,sp,8
 3082864:	e13ffe15 	stw	r4,-8(fp)
 3082868:	e17fff15 	stw	r5,-4(fp)
    rcDes->left = rcSrc->left;
 308286c:	e0bfff17 	ldw	r2,-4(fp)
 3082870:	10c00017 	ldw	r3,0(r2)
 3082874:	e0bffe17 	ldw	r2,-8(fp)
 3082878:	10c00015 	stw	r3,0(r2)
    rcDes->right = rcSrc->right;
 308287c:	e0bfff17 	ldw	r2,-4(fp)
 3082880:	10c00117 	ldw	r3,4(r2)
 3082884:	e0bffe17 	ldw	r2,-8(fp)
 3082888:	10c00115 	stw	r3,4(r2)
    rcDes->top = rcSrc->top;
 308288c:	e0bfff17 	ldw	r2,-4(fp)
 3082890:	10c00217 	ldw	r3,8(r2)
 3082894:	e0bffe17 	ldw	r2,-8(fp)
 3082898:	10c00215 	stw	r3,8(r2)
    rcDes->bottom = rcSrc->bottom;
 308289c:	e0bfff17 	ldw	r2,-4(fp)
 30828a0:	10c00317 	ldw	r3,12(r2)
 30828a4:	e0bffe17 	ldw	r2,-8(fp)
 30828a8:	10c00315 	stw	r3,12(r2)
}
 30828ac:	e037883a 	mov	sp,fp
 30828b0:	df000017 	ldw	fp,0(sp)
 30828b4:	dec00104 	addi	sp,sp,4
 30828b8:	f800283a 	ret

030828bc <RectWidth>:

int RectWidth(RECT *rc){
 30828bc:	defffe04 	addi	sp,sp,-8
 30828c0:	df000115 	stw	fp,4(sp)
 30828c4:	df000104 	addi	fp,sp,4
 30828c8:	e13fff15 	stw	r4,-4(fp)
    return (rc->right-rc->left);
 30828cc:	e0bfff17 	ldw	r2,-4(fp)
 30828d0:	10c00117 	ldw	r3,4(r2)
 30828d4:	e0bfff17 	ldw	r2,-4(fp)
 30828d8:	10800017 	ldw	r2,0(r2)
 30828dc:	1885c83a 	sub	r2,r3,r2
}
 30828e0:	e037883a 	mov	sp,fp
 30828e4:	df000017 	ldw	fp,0(sp)
 30828e8:	dec00104 	addi	sp,sp,4
 30828ec:	f800283a 	ret

030828f0 <RectHeight>:

int RectHeight(RECT *rc){
 30828f0:	defffe04 	addi	sp,sp,-8
 30828f4:	df000115 	stw	fp,4(sp)
 30828f8:	df000104 	addi	fp,sp,4
 30828fc:	e13fff15 	stw	r4,-4(fp)
    return (rc->bottom-rc->top);
 3082900:	e0bfff17 	ldw	r2,-4(fp)
 3082904:	10c00317 	ldw	r3,12(r2)
 3082908:	e0bfff17 	ldw	r2,-4(fp)
 308290c:	10800217 	ldw	r2,8(r2)
 3082910:	1885c83a 	sub	r2,r3,r2
}
 3082914:	e037883a 	mov	sp,fp
 3082918:	df000017 	ldw	fp,0(sp)
 308291c:	dec00104 	addi	sp,sp,4
 3082920:	f800283a 	ret

03082924 <PtDistance>:

int PtDistance(POINT *pt1, POINT *pt2){
 3082924:	defff904 	addi	sp,sp,-28
 3082928:	dfc00615 	stw	ra,24(sp)
 308292c:	df000515 	stw	fp,20(sp)
 3082930:	df000504 	addi	fp,sp,20
 3082934:	e13ffe15 	stw	r4,-8(fp)
 3082938:	e17fff15 	stw	r5,-4(fp)
    int nDistance;
    int a, b;
    a = pt1->x - pt2->x;
 308293c:	e0bffe17 	ldw	r2,-8(fp)
 3082940:	10c00017 	ldw	r3,0(r2)
 3082944:	e0bfff17 	ldw	r2,-4(fp)
 3082948:	10800017 	ldw	r2,0(r2)
 308294c:	1885c83a 	sub	r2,r3,r2
 3082950:	e0bffc15 	stw	r2,-16(fp)
    b = pt1->y - pt2->y;
 3082954:	e0bffe17 	ldw	r2,-8(fp)
 3082958:	10c00117 	ldw	r3,4(r2)
 308295c:	e0bfff17 	ldw	r2,-4(fp)
 3082960:	10800117 	ldw	r2,4(r2)
 3082964:	1885c83a 	sub	r2,r3,r2
 3082968:	e0bffb15 	stw	r2,-20(fp)
    nDistance = a*a + b*b;
 308296c:	e0fffc17 	ldw	r3,-16(fp)
 3082970:	e0bffc17 	ldw	r2,-16(fp)
 3082974:	1889383a 	mul	r4,r3,r2
 3082978:	e0fffb17 	ldw	r3,-20(fp)
 308297c:	e0bffb17 	ldw	r2,-20(fp)
 3082980:	1885383a 	mul	r2,r3,r2
 3082984:	2085883a 	add	r2,r4,r2
 3082988:	e0bffd15 	stw	r2,-12(fp)
    nDistance = sqrt(nDistance);
 308298c:	e13ffd17 	ldw	r4,-12(fp)
 3082990:	308b61c0 	call	308b61c <__floatsidf>
 3082994:	100b883a 	mov	r5,r2
 3082998:	180d883a 	mov	r6,r3
 308299c:	2809883a 	mov	r4,r5
 30829a0:	300b883a 	mov	r5,r6
 30829a4:	308a1c40 	call	308a1c4 <sqrt>
 30829a8:	100b883a 	mov	r5,r2
 30829ac:	180d883a 	mov	r6,r3
 30829b0:	2809883a 	mov	r4,r5
 30829b4:	300b883a 	mov	r5,r6
 30829b8:	308b7140 	call	308b714 <__fixdfsi>
 30829bc:	e0bffd15 	stw	r2,-12(fp)
    
    return nDistance;
 30829c0:	e0bffd17 	ldw	r2,-12(fp)
}
 30829c4:	e037883a 	mov	sp,fp
 30829c8:	dfc00117 	ldw	ra,4(sp)
 30829cc:	df000017 	ldw	fp,0(sp)
 30829d0:	dec00204 	addi	sp,sp,8
 30829d4:	f800283a 	ret

030829d8 <PtCopy>:

void PtCopy(POINT *ptDes, POINT *ptSrc){
 30829d8:	defffd04 	addi	sp,sp,-12
 30829dc:	df000215 	stw	fp,8(sp)
 30829e0:	df000204 	addi	fp,sp,8
 30829e4:	e13ffe15 	stw	r4,-8(fp)
 30829e8:	e17fff15 	stw	r5,-4(fp)
    ptDes->x = ptSrc->x;
 30829ec:	e0bfff17 	ldw	r2,-4(fp)
 30829f0:	10c00017 	ldw	r3,0(r2)
 30829f4:	e0bffe17 	ldw	r2,-8(fp)
 30829f8:	10c00015 	stw	r3,0(r2)
    ptDes->y = ptSrc->y;
 30829fc:	e0bfff17 	ldw	r2,-4(fp)
 3082a00:	10c00117 	ldw	r3,4(r2)
 3082a04:	e0bffe17 	ldw	r2,-8(fp)
 3082a08:	10c00115 	stw	r3,4(r2)
}
 3082a0c:	e037883a 	mov	sp,fp
 3082a10:	df000017 	ldw	fp,0(sp)
 3082a14:	dec00104 	addi	sp,sp,4
 3082a18:	f800283a 	ret

03082a1c <get_max>:
#define MAX_VALUE					   20
unsigned int data[MAX_VALUE];


int get_max(const int* arr, int arr_length)
{
 3082a1c:	defffb04 	addi	sp,sp,-20
 3082a20:	df000415 	stw	fp,16(sp)
 3082a24:	df000404 	addi	fp,sp,16
 3082a28:	e13ffe15 	stw	r4,-8(fp)
 3082a2c:	e17fff15 	stw	r5,-4(fp)
  int i;
  int max = arr[0];
 3082a30:	e0bffe17 	ldw	r2,-8(fp)
 3082a34:	10800017 	ldw	r2,0(r2)
 3082a38:	e0bffc15 	stw	r2,-16(fp)
  for(i = 1; i < arr_length; ++i)
 3082a3c:	00800044 	movi	r2,1
 3082a40:	e0bffd15 	stw	r2,-12(fp)
 3082a44:	00001406 	br	3082a98 <get_max+0x7c>
  {
    if(arr[i] >= max)
 3082a48:	e0bffd17 	ldw	r2,-12(fp)
 3082a4c:	1085883a 	add	r2,r2,r2
 3082a50:	1085883a 	add	r2,r2,r2
 3082a54:	1007883a 	mov	r3,r2
 3082a58:	e0bffe17 	ldw	r2,-8(fp)
 3082a5c:	1885883a 	add	r2,r3,r2
 3082a60:	10c00017 	ldw	r3,0(r2)
 3082a64:	e0bffc17 	ldw	r2,-16(fp)
 3082a68:	18800816 	blt	r3,r2,3082a8c <get_max+0x70>
    {
      max = arr[i];
 3082a6c:	e0bffd17 	ldw	r2,-12(fp)
 3082a70:	1085883a 	add	r2,r2,r2
 3082a74:	1085883a 	add	r2,r2,r2
 3082a78:	1007883a 	mov	r3,r2
 3082a7c:	e0bffe17 	ldw	r2,-8(fp)
 3082a80:	1885883a 	add	r2,r3,r2
 3082a84:	10800017 	ldw	r2,0(r2)
 3082a88:	e0bffc15 	stw	r2,-16(fp)

int get_max(const int* arr, int arr_length)
{
  int i;
  int max = arr[0];
  for(i = 1; i < arr_length; ++i)
 3082a8c:	e0bffd17 	ldw	r2,-12(fp)
 3082a90:	10800044 	addi	r2,r2,1
 3082a94:	e0bffd15 	stw	r2,-12(fp)
 3082a98:	e0fffd17 	ldw	r3,-12(fp)
 3082a9c:	e0bfff17 	ldw	r2,-4(fp)
 3082aa0:	18bfe916 	blt	r3,r2,3082a48 <get_max+0x2c>
    if(arr[i] >= max)
    {
      max = arr[i];
    }
  }
  return max;
 3082aa4:	e0bffc17 	ldw	r2,-16(fp)
}
 3082aa8:	e037883a 	mov	sp,fp
 3082aac:	df000017 	ldw	fp,0(sp)
 3082ab0:	dec00104 	addi	sp,sp,4
 3082ab4:	f800283a 	ret

03082ab8 <get_scale_factor>:

float get_scale_factor(int abs_dim, int max_val)
{
 3082ab8:	defffb04 	addi	sp,sp,-20
 3082abc:	dfc00415 	stw	ra,16(sp)
 3082ac0:	df000315 	stw	fp,12(sp)
 3082ac4:	dc000215 	stw	r16,8(sp)
 3082ac8:	df000204 	addi	fp,sp,8
 3082acc:	e13ffe15 	stw	r4,-8(fp)
 3082ad0:	e17fff15 	stw	r5,-4(fp)
  return abs_dim / (float)max_val;
 3082ad4:	e13ffe17 	ldw	r4,-8(fp)
 3082ad8:	308a9480 	call	308a948 <__floatsisf>
 3082adc:	1021883a 	mov	r16,r2
 3082ae0:	e13fff17 	ldw	r4,-4(fp)
 3082ae4:	308a9480 	call	308a948 <__floatsisf>
 3082ae8:	8009883a 	mov	r4,r16
 3082aec:	100b883a 	mov	r5,r2
 3082af0:	308a7d40 	call	308a7d4 <__divsf3>
}
 3082af4:	e037883a 	mov	sp,fp
 3082af8:	dfc00217 	ldw	ra,8(sp)
 3082afc:	df000117 	ldw	fp,4(sp)
 3082b00:	dc000017 	ldw	r16,0(sp)
 3082b04:	dec00304 	addi	sp,sp,12
 3082b08:	f800283a 	ret

03082b0c <plot>:

void plot(int x_offset, const int* x_data, float scale_factor_x, int y_offset,
    const int* y_data, float scale_factor_y, int values, int color,  alt_video_display* display  )
{
 3082b0c:	defff304 	addi	sp,sp,-52
 3082b10:	dfc00c15 	stw	ra,48(sp)
 3082b14:	df000b15 	stw	fp,44(sp)
 3082b18:	dc800a15 	stw	r18,40(sp)
 3082b1c:	dc400915 	stw	r17,36(sp)
 3082b20:	dc000815 	stw	r16,32(sp)
 3082b24:	df000804 	addi	fp,sp,32
 3082b28:	e13ffc15 	stw	r4,-16(fp)
 3082b2c:	e17ffd15 	stw	r5,-12(fp)
 3082b30:	e1bffe15 	stw	r6,-8(fp)
 3082b34:	e1ffff15 	stw	r7,-4(fp)
  int i;
  // Plot the points
  for(i = 1; i < values; ++i)
 3082b38:	00800044 	movi	r2,1
 3082b3c:	e0bffb15 	stw	r2,-20(fp)
 3082b40:	00004f06 	br	3082c80 <plot+0x174>
  {
//    point(x_offset + x_data[i] * scale_factor_x,
//        y_offset + y_data[i] * scale_factor_y);
    vid_draw_line(x_offset + (int)(x_data[i-1] * scale_factor_x),
 3082b44:	e0bffb17 	ldw	r2,-20(fp)
 3082b48:	1085883a 	add	r2,r2,r2
 3082b4c:	1085883a 	add	r2,r2,r2
 3082b50:	1007883a 	mov	r3,r2
 3082b54:	e0bffd17 	ldw	r2,-12(fp)
 3082b58:	1885883a 	add	r2,r3,r2
 3082b5c:	10bfff04 	addi	r2,r2,-4
 3082b60:	11000017 	ldw	r4,0(r2)
 3082b64:	308a9480 	call	308a948 <__floatsisf>
 3082b68:	1009883a 	mov	r4,r2
 3082b6c:	e17ffe17 	ldw	r5,-8(fp)
 3082b70:	308a5f40 	call	308a5f4 <__mulsf3>
 3082b74:	1009883a 	mov	r4,r2
 3082b78:	308a9e00 	call	308a9e0 <__fixsfsi>
 3082b7c:	1007883a 	mov	r3,r2
 3082b80:	e0bffc17 	ldw	r2,-16(fp)
 3082b84:	18a1883a 	add	r16,r3,r2
 3082b88:	e0bffb17 	ldw	r2,-20(fp)
 3082b8c:	1085883a 	add	r2,r2,r2
 3082b90:	1085883a 	add	r2,r2,r2
 3082b94:	1007883a 	mov	r3,r2
 3082b98:	e0800517 	ldw	r2,20(fp)
 3082b9c:	1885883a 	add	r2,r3,r2
 3082ba0:	10bfff04 	addi	r2,r2,-4
 3082ba4:	11000017 	ldw	r4,0(r2)
 3082ba8:	308a9480 	call	308a948 <__floatsisf>
 3082bac:	1009883a 	mov	r4,r2
 3082bb0:	e1400617 	ldw	r5,24(fp)
 3082bb4:	308a5f40 	call	308a5f4 <__mulsf3>
 3082bb8:	1009883a 	mov	r4,r2
 3082bbc:	308a9e00 	call	308a9e0 <__fixsfsi>
 3082bc0:	1007883a 	mov	r3,r2
 3082bc4:	e0bfff17 	ldw	r2,-4(fp)
 3082bc8:	10e3c83a 	sub	r17,r2,r3
 3082bcc:	e0bffb17 	ldw	r2,-20(fp)
 3082bd0:	1085883a 	add	r2,r2,r2
 3082bd4:	1085883a 	add	r2,r2,r2
 3082bd8:	1007883a 	mov	r3,r2
 3082bdc:	e0bffd17 	ldw	r2,-12(fp)
 3082be0:	1885883a 	add	r2,r3,r2
 3082be4:	11000017 	ldw	r4,0(r2)
 3082be8:	308a9480 	call	308a948 <__floatsisf>
 3082bec:	1009883a 	mov	r4,r2
 3082bf0:	e17ffe17 	ldw	r5,-8(fp)
 3082bf4:	308a5f40 	call	308a5f4 <__mulsf3>
 3082bf8:	1009883a 	mov	r4,r2
 3082bfc:	308a9e00 	call	308a9e0 <__fixsfsi>
 3082c00:	1007883a 	mov	r3,r2
 3082c04:	e0bffc17 	ldw	r2,-16(fp)
 3082c08:	18a5883a 	add	r18,r3,r2
 3082c0c:	e0bffb17 	ldw	r2,-20(fp)
 3082c10:	1085883a 	add	r2,r2,r2
 3082c14:	1085883a 	add	r2,r2,r2
 3082c18:	1007883a 	mov	r3,r2
 3082c1c:	e0800517 	ldw	r2,20(fp)
 3082c20:	1885883a 	add	r2,r3,r2
 3082c24:	11000017 	ldw	r4,0(r2)
 3082c28:	308a9480 	call	308a948 <__floatsisf>
 3082c2c:	1009883a 	mov	r4,r2
 3082c30:	e1400617 	ldw	r5,24(fp)
 3082c34:	308a5f40 	call	308a5f4 <__mulsf3>
 3082c38:	1009883a 	mov	r4,r2
 3082c3c:	308a9e00 	call	308a9e0 <__fixsfsi>
 3082c40:	1007883a 	mov	r3,r2
 3082c44:	e0bfff17 	ldw	r2,-4(fp)
 3082c48:	10cfc83a 	sub	r7,r2,r3
 3082c4c:	00800044 	movi	r2,1
 3082c50:	d8800015 	stw	r2,0(sp)
 3082c54:	e0800817 	ldw	r2,32(fp)
 3082c58:	d8800115 	stw	r2,4(sp)
 3082c5c:	e0800917 	ldw	r2,36(fp)
 3082c60:	d8800215 	stw	r2,8(sp)
 3082c64:	8009883a 	mov	r4,r16
 3082c68:	880b883a 	mov	r5,r17
 3082c6c:	900d883a 	mov	r6,r18
 3082c70:	30861d00 	call	30861d0 <vid_draw_line>
void plot(int x_offset, const int* x_data, float scale_factor_x, int y_offset,
    const int* y_data, float scale_factor_y, int values, int color,  alt_video_display* display  )
{
  int i;
  // Plot the points
  for(i = 1; i < values; ++i)
 3082c74:	e0bffb17 	ldw	r2,-20(fp)
 3082c78:	10800044 	addi	r2,r2,1
 3082c7c:	e0bffb15 	stw	r2,-20(fp)
 3082c80:	e0fffb17 	ldw	r3,-20(fp)
 3082c84:	e0800717 	ldw	r2,28(fp)
 3082c88:	18bfae16 	blt	r3,r2,3082b44 <plot+0x38>
        y_offset - (int)(y_data[i] * scale_factor_y),
        1,
        color,
        display);
  }
}
 3082c8c:	e037883a 	mov	sp,fp
 3082c90:	dfc00417 	ldw	ra,16(sp)
 3082c94:	df000317 	ldw	fp,12(sp)
 3082c98:	dc800217 	ldw	r18,8(sp)
 3082c9c:	dc400117 	ldw	r17,4(sp)
 3082ca0:	dc000017 	ldw	r16,0(sp)
 3082ca4:	dec00504 	addi	sp,sp,20
 3082ca8:	f800283a 	ret

03082cac <sliding_plot>:

// Values is the max of the array

void sliding_plot(int x_offset, const int* x_data, float scale_factor_x, int y_offset,
    const int* y_data, float scale_factor_y, int values, int color,  alt_video_display* display) {
 3082cac:	defffa04 	addi	sp,sp,-24
 3082cb0:	df000515 	stw	fp,20(sp)
 3082cb4:	df000504 	addi	fp,sp,20
 3082cb8:	e13ffc15 	stw	r4,-16(fp)
 3082cbc:	e17ffd15 	stw	r5,-12(fp)
 3082cc0:	e1bffe15 	stw	r6,-8(fp)
 3082cc4:	e1ffff15 	stw	r7,-4(fp)
//		        1,
//		        color,
//		        display);
//	}

}
 3082cc8:	e037883a 	mov	sp,fp
 3082ccc:	df000017 	ldw	fp,0(sp)
 3082cd0:	dec00104 	addi	sp,sp,4
 3082cd4:	f800283a 	ret

03082cd8 <draw_options>:

void draw_options(VIP_FRAME_READER *pReader, RECT* ok_button, RECT * res_opt_buttons, RECT * wind_opt_buttons) {
 3082cd8:	deffee04 	addi	sp,sp,-72
 3082cdc:	dfc01115 	stw	ra,68(sp)
 3082ce0:	df001015 	stw	fp,64(sp)
 3082ce4:	df001004 	addi	fp,sp,64
 3082ce8:	e13ffc15 	stw	r4,-16(fp)
 3082cec:	e17ffd15 	stw	r5,-12(fp)
 3082cf0:	e1bffe15 	stw	r6,-8(fp)
 3082cf4:	e1ffff15 	stw	r7,-4(fp)
	vid_draw_box(OFFSET_HORIZ_MENU_OPTION,
 3082cf8:	d8000015 	stw	zero,0(sp)
 3082cfc:	00800044 	movi	r2,1
 3082d00:	d8800115 	stw	r2,4(sp)
 3082d04:	e0bffc17 	ldw	r2,-16(fp)
 3082d08:	d8800215 	stw	r2,8(sp)
 3082d0c:	01003e84 	movi	r4,250
 3082d10:	01402584 	movi	r5,150
 3082d14:	01807d04 	movi	r6,500
 3082d18:	01c06904 	movi	r7,420
 3082d1c:	30869fc0 	call	30869fc <vid_draw_box>
			OFFSET_VERT_MENU_OPTION,
			OFFSET_HORIZ_MENU_OPTION + HORIZ_LENGTH_MENU_OPTION,
			OFFSET_VERT_MENU_OPTION + VERT_LENGTH_MENU_OPTION,
			BG_COLOR_MENU_OPTION, 1, pReader);

	vid_print_string_alpha(OFFSET_HORIZ_MENU_OPTION + REL_HORIZ_OFFSET_OPTION_HEADER,
 3082d20:	008081b4 	movhi	r2,518
 3082d24:	10be4d04 	addi	r2,r2,-1740
 3082d28:	d8800015 	stw	r2,0(sp)
 3082d2c:	e0bffc17 	ldw	r2,-16(fp)
 3082d30:	d8800115 	stw	r2,4(sp)
 3082d34:	00808134 	movhi	r2,516
 3082d38:	10938b04 	addi	r2,r2,20012
 3082d3c:	d8800215 	stw	r2,8(sp)
 3082d40:	01004384 	movi	r4,270
 3082d44:	01402a84 	movi	r5,170
 3082d48:	01802a34 	movhi	r6,168
 3082d4c:	31a9e9c4 	addi	r6,r6,-22617
 3082d50:	000f883a 	mov	r7,zero
 3082d54:	3088f680 	call	3088f68 <vid_print_string_alpha>
	// 0.5, 1, 5

	// Window Time:
	// 10, 60, 300

	int resolution_header_vert_offset = 20;
 3082d58:	00800504 	movi	r2,20
 3082d5c:	e0bff915 	stw	r2,-28(fp)
	// Draw resolution header
	vid_print_string_alpha(OFFSET_HORIZ_MENU_OPTION + REL_HORIZ_OFFSET_OPTION_HEADER,
 3082d60:	e0bff917 	ldw	r2,-28(fp)
 3082d64:	11402a84 	addi	r5,r2,170
 3082d68:	008081b4 	movhi	r2,518
 3082d6c:	10be4d04 	addi	r2,r2,-1740
 3082d70:	d8800015 	stw	r2,0(sp)
 3082d74:	e0bffc17 	ldw	r2,-16(fp)
 3082d78:	d8800115 	stw	r2,4(sp)
 3082d7c:	00808134 	movhi	r2,516
 3082d80:	10938d04 	addi	r2,r2,20020
 3082d84:	d8800215 	stw	r2,8(sp)
 3082d88:	01004384 	movi	r4,270
 3082d8c:	01802a34 	movhi	r6,168
 3082d90:	31a9e9c4 	addi	r6,r6,-22617
 3082d94:	000f883a 	mov	r7,zero
 3082d98:	3088f680 	call	3088f68 <vid_print_string_alpha>
				TEXT_COLOR_OPTION,
				BG_COLOR_MENU_OPTION,
				tahomabold_20, pReader, "Resolution Options");

	// Draw res options
	int resolution_options_vert_offset = 40;
 3082d9c:	00800a04 	movi	r2,40
 3082da0:	e0bff815 	stw	r2,-32(fp)
	int resolution_options_horiz_offsets = 10;
 3082da4:	00800284 	movi	r2,10
 3082da8:	e0bff715 	stw	r2,-36(fp)
	const int res_opts[] = {500, 1000, 5000};
	int i;
	char float_digits[] = "1.0";
 3082dac:	00808134 	movhi	r2,516
 3082db0:	10939904 	addi	r2,r2,20068
 3082db4:	10800017 	ldw	r2,0(r2)
 3082db8:	e0bffa15 	stw	r2,-24(fp)
	for(i = 0; i < res_opts_count; ++i) {
 3082dbc:	e03ff615 	stw	zero,-40(fp)
 3082dc0:	00003f06 	br	3082ec0 <draw_options+0x1e8>
		sprintf(float_digits, "%f", res_opts[i]/1000.0);
 3082dc4:	e0bff617 	ldw	r2,-40(fp)
 3082dc8:	00c08134 	movhi	r3,516
 3082dcc:	18d38804 	addi	r3,r3,20000
 3082dd0:	1085883a 	add	r2,r2,r2
 3082dd4:	1085883a 	add	r2,r2,r2
 3082dd8:	10c5883a 	add	r2,r2,r3
 3082ddc:	11000017 	ldw	r4,0(r2)
 3082de0:	308b61c0 	call	308b61c <__floatsidf>
 3082de4:	100b883a 	mov	r5,r2
 3082de8:	180d883a 	mov	r6,r3
 3082dec:	2809883a 	mov	r4,r5
 3082df0:	300b883a 	mov	r5,r6
 3082df4:	000d883a 	mov	r6,zero
 3082df8:	01d023f4 	movhi	r7,16527
 3082dfc:	39d00004 	addi	r7,r7,16384
 3082e00:	308b33c0 	call	308b33c <__divdf3>
 3082e04:	1009883a 	mov	r4,r2
 3082e08:	180b883a 	mov	r5,r3
 3082e0c:	2005883a 	mov	r2,r4
 3082e10:	2807883a 	mov	r3,r5
 3082e14:	e13ffa04 	addi	r4,fp,-24
 3082e18:	01408134 	movhi	r5,516
 3082e1c:	29539204 	addi	r5,r5,20040
 3082e20:	100d883a 	mov	r6,r2
 3082e24:	180f883a 	mov	r7,r3
 3082e28:	308e27c0 	call	308e27c <sprintf>
		vid_print_string_alpha(OFFSET_HORIZ_MENU_OPTION + REL_HORIZ_OFFSET_OPTION_HEADER + i * resolution_options_horiz_offsets,
 3082e2c:	e0fff617 	ldw	r3,-40(fp)
 3082e30:	e0bff717 	ldw	r2,-36(fp)
 3082e34:	1885383a 	mul	r2,r3,r2
 3082e38:	11004384 	addi	r4,r2,270
 3082e3c:	e0bff817 	ldw	r2,-32(fp)
 3082e40:	11402a84 	addi	r5,r2,170
 3082e44:	008081b4 	movhi	r2,518
 3082e48:	10be4d04 	addi	r2,r2,-1740
 3082e4c:	d8800015 	stw	r2,0(sp)
 3082e50:	e0bffc17 	ldw	r2,-16(fp)
 3082e54:	d8800115 	stw	r2,4(sp)
 3082e58:	e0bffa04 	addi	r2,fp,-24
 3082e5c:	d8800215 	stw	r2,8(sp)
 3082e60:	01802a34 	movhi	r6,168
 3082e64:	31a9e9c4 	addi	r6,r6,-22617
 3082e68:	000f883a 	mov	r7,zero
 3082e6c:	3088f680 	call	3088f68 <vid_print_string_alpha>
						BG_COLOR_MENU_OPTION,
						tahomabold_20, pReader, float_digits);

		// Set res options hit area
		// Using VERT length of OK Button for now.
		RectSet(&(res_opt_buttons[i]),
 3082e70:	e0bff617 	ldw	r2,-40(fp)
 3082e74:	1004913a 	slli	r2,r2,4
 3082e78:	1007883a 	mov	r3,r2
 3082e7c:	e0bffe17 	ldw	r2,-8(fp)
 3082e80:	1889883a 	add	r4,r3,r2
 3082e84:	e0bff617 	ldw	r2,-40(fp)
 3082e88:	10800a24 	muli	r2,r2,40
 3082e8c:	11404104 	addi	r5,r2,260
 3082e90:	e0bff617 	ldw	r2,-40(fp)
 3082e94:	10800a24 	muli	r2,r2,40
 3082e98:	11804b04 	addi	r6,r2,300
 3082e9c:	e0bff817 	ldw	r2,-32(fp)
 3082ea0:	11c02a84 	addi	r7,r2,170
 3082ea4:	e0bff817 	ldw	r2,-32(fp)
 3082ea8:	10802f84 	addi	r2,r2,190
 3082eac:	d8800015 	stw	r2,0(sp)
 3082eb0:	30826ec0 	call	30826ec <RectSet>
	int resolution_options_vert_offset = 40;
	int resolution_options_horiz_offsets = 10;
	const int res_opts[] = {500, 1000, 5000};
	int i;
	char float_digits[] = "1.0";
	for(i = 0; i < res_opts_count; ++i) {
 3082eb4:	e0bff617 	ldw	r2,-40(fp)
 3082eb8:	10800044 	addi	r2,r2,1
 3082ebc:	e0bff615 	stw	r2,-40(fp)
 3082ec0:	d0e00117 	ldw	r3,-32764(gp)
 3082ec4:	e0bff617 	ldw	r2,-40(fp)
 3082ec8:	10ffbe16 	blt	r2,r3,3082dc4 <draw_options+0xec>
			    		OFFSET_VERT_MENU_OPTION + REL_VERT_OFFSET_OPTION_HEADER + resolution_options_vert_offset,
			    		OFFSET_VERT_MENU_OPTION + REL_VERT_OFFSET_OPTION_HEADER + resolution_options_vert_offset + BTN_VERT_LENGTH_OK);

	}
	// Draw Window Header
	int window_header_vert_offset = 60;
 3082ecc:	00800f04 	movi	r2,60
 3082ed0:	e0bff515 	stw	r2,-44(fp)
	int window_opts_vert_offset = 80;
 3082ed4:	00801404 	movi	r2,80
 3082ed8:	e0bff415 	stw	r2,-48(fp)
	vid_print_string_alpha(OFFSET_HORIZ_MENU_OPTION + REL_HORIZ_OFFSET_OPTION_HEADER,
 3082edc:	e0bff517 	ldw	r2,-44(fp)
 3082ee0:	11402a84 	addi	r5,r2,170
 3082ee4:	008081b4 	movhi	r2,518
 3082ee8:	10be4d04 	addi	r2,r2,-1740
 3082eec:	d8800015 	stw	r2,0(sp)
 3082ef0:	e0bffc17 	ldw	r2,-16(fp)
 3082ef4:	d8800115 	stw	r2,4(sp)
 3082ef8:	00808134 	movhi	r2,516
 3082efc:	10939304 	addi	r2,r2,20044
 3082f00:	d8800215 	stw	r2,8(sp)
 3082f04:	01004384 	movi	r4,270
 3082f08:	01802a34 	movhi	r6,168
 3082f0c:	31a9e9c4 	addi	r6,r6,-22617
 3082f10:	000f883a 	mov	r7,zero
 3082f14:	3088f680 	call	3088f68 <vid_print_string_alpha>
					OFFSET_VERT_MENU_OPTION + REL_VERT_OFFSET_OPTION_HEADER + window_header_vert_offset,
					TEXT_COLOR_OPTION,
					BG_COLOR_MENU_OPTION,
					tahomabold_20, pReader, "Window Options");
	// Use the same vert and horiz offsets as from resolution
	const int * wind_opts = {10, 60, 300};
 3082f18:	00800284 	movi	r2,10
 3082f1c:	e0bff315 	stw	r2,-52(fp)
	char digits[] = "100";
 3082f20:	00808134 	movhi	r2,516
 3082f24:	10939a04 	addi	r2,r2,20072
 3082f28:	10800017 	ldw	r2,0(r2)
 3082f2c:	e0bffb15 	stw	r2,-20(fp)
	for(i = 0; i < wind_opts_count; ++i) {
 3082f30:	e03ff615 	stw	zero,-40(fp)
 3082f34:	00003006 	br	3082ff8 <draw_options+0x320>
		sprintf(digits, "%d", wind_opts[i]);
 3082f38:	e0bff617 	ldw	r2,-40(fp)
 3082f3c:	1085883a 	add	r2,r2,r2
 3082f40:	1085883a 	add	r2,r2,r2
 3082f44:	1007883a 	mov	r3,r2
 3082f48:	e0bff317 	ldw	r2,-52(fp)
 3082f4c:	1885883a 	add	r2,r3,r2
 3082f50:	11800017 	ldw	r6,0(r2)
 3082f54:	e13ffb04 	addi	r4,fp,-20
 3082f58:	01408134 	movhi	r5,516
 3082f5c:	29539704 	addi	r5,r5,20060
 3082f60:	308e27c0 	call	308e27c <sprintf>
		vid_print_string_alpha(OFFSET_HORIZ_MENU_OPTION + REL_HORIZ_OFFSET_OPTION_HEADER + i * resolution_options_horiz_offsets,
 3082f64:	e0fff617 	ldw	r3,-40(fp)
 3082f68:	e0bff717 	ldw	r2,-36(fp)
 3082f6c:	1885383a 	mul	r2,r3,r2
 3082f70:	11004384 	addi	r4,r2,270
 3082f74:	e0bff417 	ldw	r2,-48(fp)
 3082f78:	11402a84 	addi	r5,r2,170
 3082f7c:	008081b4 	movhi	r2,518
 3082f80:	10be4d04 	addi	r2,r2,-1740
 3082f84:	d8800015 	stw	r2,0(sp)
 3082f88:	e0bffc17 	ldw	r2,-16(fp)
 3082f8c:	d8800115 	stw	r2,4(sp)
 3082f90:	e0bffb04 	addi	r2,fp,-20
 3082f94:	d8800215 	stw	r2,8(sp)
 3082f98:	01802a34 	movhi	r6,168
 3082f9c:	31a9e9c4 	addi	r6,r6,-22617
 3082fa0:	000f883a 	mov	r7,zero
 3082fa4:	3088f680 	call	3088f68 <vid_print_string_alpha>
								OFFSET_VERT_MENU_OPTION + REL_VERT_OFFSET_OPTION_HEADER + window_opts_vert_offset,
								TEXT_COLOR_OPTION,
								BG_COLOR_MENU_OPTION,
								tahomabold_20, pReader, digits);

		RectSet(&(wind_opt_buttons[i]),
 3082fa8:	e0bff617 	ldw	r2,-40(fp)
 3082fac:	1004913a 	slli	r2,r2,4
 3082fb0:	1007883a 	mov	r3,r2
 3082fb4:	e0bfff17 	ldw	r2,-4(fp)
 3082fb8:	1889883a 	add	r4,r3,r2
 3082fbc:	e0bff617 	ldw	r2,-40(fp)
 3082fc0:	10800a24 	muli	r2,r2,40
 3082fc4:	11404104 	addi	r5,r2,260
 3082fc8:	e0bff617 	ldw	r2,-40(fp)
 3082fcc:	10800a24 	muli	r2,r2,40
 3082fd0:	11804b04 	addi	r6,r2,300
 3082fd4:	e0bff417 	ldw	r2,-48(fp)
 3082fd8:	11c02a84 	addi	r7,r2,170
 3082fdc:	e0bff417 	ldw	r2,-48(fp)
 3082fe0:	10802f84 	addi	r2,r2,190
 3082fe4:	d8800015 	stw	r2,0(sp)
 3082fe8:	30826ec0 	call	30826ec <RectSet>
					BG_COLOR_MENU_OPTION,
					tahomabold_20, pReader, "Window Options");
	// Use the same vert and horiz offsets as from resolution
	const int * wind_opts = {10, 60, 300};
	char digits[] = "100";
	for(i = 0; i < wind_opts_count; ++i) {
 3082fec:	e0bff617 	ldw	r2,-40(fp)
 3082ff0:	10800044 	addi	r2,r2,1
 3082ff4:	e0bff615 	stw	r2,-40(fp)
 3082ff8:	d0e00217 	ldw	r3,-32760(gp)
 3082ffc:	e0bff617 	ldw	r2,-40(fp)
 3083000:	10ffcd16 	blt	r2,r3,3082f38 <draw_options+0x260>

	}


	// Set button hit area
	RectSet(ok_button,
 3083004:	008067c4 	movi	r2,415
 3083008:	d8800015 	stw	r2,0(sp)
 308300c:	e13ffd17 	ldw	r4,-12(fp)
 3083010:	01404104 	movi	r5,260
 3083014:	01804b04 	movi	r6,300
 3083018:	01c062c4 	movi	r7,395
 308301c:	30826ec0 	call	30826ec <RectSet>
	    		OFFSET_HORIZ_MENU_OPTION + REL_HORIZ_OFFSET_BUTTON_OK + BTN_HORIZ_LENGTH_OK,
	    		OFFSET_VERT_MENU_OPTION + VERT_LENGTH_MENU_OPTION + REL_VERT_OFFSET_BUTTON_OK,
	    		OFFSET_VERT_MENU_OPTION + VERT_LENGTH_MENU_OPTION + REL_VERT_OFFSET_BUTTON_OK + BTN_VERT_LENGTH_OK);

    // Draw the button
    vid_draw_box(OFFSET_HORIZ_MENU_OPTION + REL_HORIZ_OFFSET_BUTTON_OK,
 3083020:	00802a34 	movhi	r2,168
 3083024:	10a9e9c4 	addi	r2,r2,-22617
 3083028:	d8800015 	stw	r2,0(sp)
 308302c:	00800044 	movi	r2,1
 3083030:	d8800115 	stw	r2,4(sp)
 3083034:	e0bffc17 	ldw	r2,-16(fp)
 3083038:	d8800215 	stw	r2,8(sp)
 308303c:	01004104 	movi	r4,260
 3083040:	01401f44 	movi	r5,125
 3083044:	01800a04 	movi	r6,40
 3083048:	01c00504 	movi	r7,20
 308304c:	30869fc0 	call	30869fc <vid_draw_box>
    		BTN_HORIZ_LENGTH_OK,
    		BTN_VERT_LENGTH_OK,
    		BTN_BG_COLOR_OK,
    		1, pReader);

    vid_print_string_alpha(OFFSET_HORIZ_MENU_OPTION + BTN_OFFSET_HORIZ_TEXT_OK,
 3083050:	008081b4 	movhi	r2,518
 3083054:	10be4d04 	addi	r2,r2,-1740
 3083058:	d8800015 	stw	r2,0(sp)
 308305c:	e0bffc17 	ldw	r2,-16(fp)
 3083060:	d8800115 	stw	r2,4(sp)
 3083064:	00808134 	movhi	r2,516
 3083068:	10939804 	addi	r2,r2,20064
 308306c:	d8800215 	stw	r2,8(sp)
 3083070:	01004104 	movi	r4,260
 3083074:	014062c4 	movi	r5,395
 3083078:	01804034 	movhi	r6,256
 308307c:	31bfffc4 	addi	r6,r6,-1
 3083080:	01c02a34 	movhi	r7,168
 3083084:	39e9e9c4 	addi	r7,r7,-22617
 3083088:	3088f680 	call	3088f68 <vid_print_string_alpha>
    		OFFSET_VERT_MENU_OPTION + VERT_LENGTH_MENU_OPTION + BTN_OFFSET_VERT_TEXT_OK,
    		BTN_TEXT_COLOR_OK,
    		BTN_BG_COLOR_OK,
    		tahomabold_20, pReader, "OK");

}
 308308c:	e037883a 	mov	sp,fp
 3083090:	dfc00117 	ldw	ra,4(sp)
 3083094:	df000017 	ldw	fp,0(sp)
 3083098:	dec00204 	addi	sp,sp,8
 308309c:	f800283a 	ret

030830a0 <GUI_CheckButton>:


int GUI_CheckButton(POINT *pt, RECT * rc_button){
 30830a0:	defffb04 	addi	sp,sp,-20
 30830a4:	dfc00415 	stw	ra,16(sp)
 30830a8:	df000315 	stw	fp,12(sp)
 30830ac:	df000304 	addi	fp,sp,12
 30830b0:	e13ffd15 	stw	r4,-12(fp)
 30830b4:	e17ffe15 	stw	r5,-8(fp)

    if(IsPtInRect(pt, rc_button))
 30830b8:	e13ffd17 	ldw	r4,-12(fp)
 30830bc:	e17ffe17 	ldw	r5,-8(fp)
 30830c0:	30826280 	call	3082628 <IsPtInRect>
 30830c4:	1005003a 	cmpeq	r2,r2,zero
 30830c8:	1000031e 	bne	r2,zero,30830d8 <GUI_CheckButton+0x38>
    {
        return 1;
 30830cc:	00800044 	movi	r2,1
 30830d0:	e0bfff15 	stw	r2,-4(fp)
 30830d4:	00000106 	br	30830dc <GUI_CheckButton+0x3c>
    }
    else
    {
        return 0;
 30830d8:	e03fff15 	stw	zero,-4(fp)
 30830dc:	e0bfff17 	ldw	r2,-4(fp)
    }
}
 30830e0:	e037883a 	mov	sp,fp
 30830e4:	dfc00117 	ldw	ra,4(sp)
 30830e8:	df000017 	ldw	fp,0(sp)
 30830ec:	dec00204 	addi	sp,sp,8
 30830f0:	f800283a 	ret

030830f4 <drawStats>:

void drawStats(VIP_FRAME_READER *pReader) {
 30830f4:	defff304 	addi	sp,sp,-52
 30830f8:	dfc00c15 	stw	ra,48(sp)
 30830fc:	df000b15 	stw	fp,44(sp)
 3083100:	df000b04 	addi	fp,sp,44
 3083104:	e13fff15 	stw	r4,-4(fp)

	const int * STATS[NUM_OPTIONS];
	STATS[0] = 1;
 3083108:	00800044 	movi	r2,1
 308310c:	e0bff915 	stw	r2,-28(fp)
	STATS[1] = 33;
 3083110:	00800844 	movi	r2,33
 3083114:	e0bffa15 	stw	r2,-24(fp)
	STATS[2] = 2;
 3083118:	00800084 	movi	r2,2
 308311c:	e0bffb15 	stw	r2,-20(fp)
	STATS[3] = 54;
 3083120:	00800d84 	movi	r2,54
 3083124:	e0bffc15 	stw	r2,-16(fp)
	STATS[4] = 100;
 3083128:	00801904 	movi	r2,100
 308312c:	e0bffd15 	stw	r2,-12(fp)
	// Draw the stats
	// TODO Have to cast the int into a string correctly
	char digits[] = "000";
 3083130:	00808134 	movhi	r2,516
 3083134:	10939b04 	addi	r2,r2,20076
 3083138:	10800017 	ldw	r2,0(r2)
 308313c:	e0bffe15 	stw	r2,-8(fp)
	int i;
	for(i = 0; i < NUM_OPTIONS; ++i)
 3083140:	e03ff815 	stw	zero,-32(fp)
 3083144:	00002a06 	br	30831f0 <drawStats+0xfc>
	{
		if(i == 2) {
 3083148:	e0bff817 	ldw	r2,-32(fp)
 308314c:	10800098 	cmpnei	r2,r2,2
 3083150:	1000091e 	bne	r2,zero,3083178 <drawStats+0x84>
			// Change the panel voltage for the battery voltage level
			sprintf(digits, "%d", a1.readDataR);
 3083154:	008081b4 	movhi	r2,518
 3083158:	108b9604 	addi	r2,r2,11864
 308315c:	108000c3 	ldbu	r2,3(r2)
 3083160:	11803fcc 	andi	r6,r2,255
 3083164:	e13ffe04 	addi	r4,fp,-8
 3083168:	01408134 	movhi	r5,516
 308316c:	29539704 	addi	r5,r5,20060
 3083170:	308e27c0 	call	308e27c <sprintf>
 3083174:	00000b06 	br	30831a4 <drawStats+0xb0>
		}
		else {
			sprintf(digits, "%d", STATS[i]);
 3083178:	e0bff817 	ldw	r2,-32(fp)
 308317c:	1085883a 	add	r2,r2,r2
 3083180:	1085883a 	add	r2,r2,r2
 3083184:	e0fff804 	addi	r3,fp,-32
 3083188:	10c5883a 	add	r2,r2,r3
 308318c:	10800104 	addi	r2,r2,4
 3083190:	11800017 	ldw	r6,0(r2)
 3083194:	e13ffe04 	addi	r4,fp,-8
 3083198:	01408134 	movhi	r5,516
 308319c:	29539704 	addi	r5,r5,20060
 30831a0:	308e27c0 	call	308e27c <sprintf>
		}
		vid_print_string_alpha(STAT_OFFSET_HORIZ,
 30831a4:	e0bff817 	ldw	r2,-32(fp)
 30831a8:	10800a24 	muli	r2,r2,40
 30831ac:	11402584 	addi	r5,r2,150
 30831b0:	008081b4 	movhi	r2,518
 30831b4:	10be4d04 	addi	r2,r2,-1740
 30831b8:	d8800015 	stw	r2,0(sp)
 30831bc:	e0bfff17 	ldw	r2,-4(fp)
 30831c0:	d8800115 	stw	r2,4(sp)
 30831c4:	e0bffe04 	addi	r2,fp,-8
 30831c8:	d8800215 	stw	r2,8(sp)
 30831cc:	0100af04 	movi	r4,700
 30831d0:	01802a34 	movhi	r6,168
 30831d4:	31a9e9c4 	addi	r6,r6,-22617
 30831d8:	01c011f4 	movhi	r7,71
 30831dc:	39d1d1c4 	addi	r7,r7,18247
 30831e0:	3088f680 	call	3088f68 <vid_print_string_alpha>
	STATS[4] = 100;
	// Draw the stats
	// TODO Have to cast the int into a string correctly
	char digits[] = "000";
	int i;
	for(i = 0; i < NUM_OPTIONS; ++i)
 30831e4:	e0bff817 	ldw	r2,-32(fp)
 30831e8:	10800044 	addi	r2,r2,1
 30831ec:	e0bff815 	stw	r2,-32(fp)
 30831f0:	e0bff817 	ldw	r2,-32(fp)
 30831f4:	10800150 	cmplti	r2,r2,5
 30831f8:	103fd31e 	bne	r2,zero,3083148 <drawStats+0x54>
		}
		vid_print_string_alpha(STAT_OFFSET_HORIZ,
				STAT_OFFSET_VERT + (i * VERT_SPACING_INFO),
				COLOR_INFO_TEXT, BG_COLOR, tahomabold_20, pReader, digits);
	}
}
 30831fc:	e037883a 	mov	sp,fp
 3083200:	dfc00117 	ldw	ra,4(sp)
 3083204:	df000017 	ldw	fp,0(sp)
 3083208:	dec00204 	addi	sp,sp,8
 308320c:	f800283a 	ret

03083210 <GUI_DeskDraw>:


void GUI_DeskDraw(VIP_FRAME_READER *pReader, RECT* rc_button){
 3083210:	deffe904 	addi	sp,sp,-92
 3083214:	dfc01615 	stw	ra,88(sp)
 3083218:	df001515 	stw	fp,84(sp)
 308321c:	df001504 	addi	fp,sp,84
 3083220:	e13ffe15 	stw	r4,-8(fp)
 3083224:	e17fff15 	stw	r5,-4(fp)
    RECT rc;
    

    // Draw the background
    vid_draw_box(0, 0, FRAME_WIDTH, FRAME_HEIGHT, BG_COLOR, 1, pReader);
 3083228:	008011f4 	movhi	r2,71
 308322c:	1091d1c4 	addi	r2,r2,18247
 3083230:	d8800015 	stw	r2,0(sp)
 3083234:	00800044 	movi	r2,1
 3083238:	d8800115 	stw	r2,4(sp)
 308323c:	e0bffe17 	ldw	r2,-8(fp)
 3083240:	d8800215 	stw	r2,8(sp)
 3083244:	0009883a 	mov	r4,zero
 3083248:	000b883a 	mov	r5,zero
 308324c:	0180c804 	movi	r6,800
 3083250:	01c07804 	movi	r7,480
 3083254:	30869fc0 	call	30869fc <vid_draw_box>

    // Draw the Title Bar
    vid_draw_box(0, 0, FRAME_WIDTH, VERT_LENGTH_TITLE_BAR, BG_COLOR_TITLE_BAR, 1, pReader);
 3083258:	00804034 	movhi	r2,256
 308325c:	10bfffc4 	addi	r2,r2,-1
 3083260:	d8800015 	stw	r2,0(sp)
 3083264:	00800044 	movi	r2,1
 3083268:	d8800115 	stw	r2,4(sp)
 308326c:	e0bffe17 	ldw	r2,-8(fp)
 3083270:	d8800215 	stw	r2,8(sp)
 3083274:	0009883a 	mov	r4,zero
 3083278:	000b883a 	mov	r5,zero
 308327c:	0180c804 	movi	r6,800
 3083280:	01c00cc4 	movi	r7,51
 3083284:	30869fc0 	call	30869fc <vid_draw_box>
    vid_print_string_alpha(OFFSET_HORIZ_TITLE_TEXT,
 3083288:	008081b4 	movhi	r2,518
 308328c:	10be4d04 	addi	r2,r2,-1740
 3083290:	d8800015 	stw	r2,0(sp)
 3083294:	e0bffe17 	ldw	r2,-8(fp)
 3083298:	d8800115 	stw	r2,4(sp)
 308329c:	00808134 	movhi	r2,516
 30832a0:	10939c04 	addi	r2,r2,20080
 30832a4:	d8800215 	stw	r2,8(sp)
 30832a8:	01003e84 	movi	r4,250
 30832ac:	01400284 	movi	r5,10
 30832b0:	01802a34 	movhi	r6,168
 30832b4:	31a9e9c4 	addi	r6,r6,-22617
 30832b8:	01c04034 	movhi	r7,256
 30832bc:	39ffffc4 	addi	r7,r7,-1
 30832c0:	3088f680 	call	3088f68 <vid_print_string_alpha>
    		COLOR_TITLE_TEXT,
    		BG_COLOR_TITLE_BAR,
    		tahomabold_20, pReader, "Solar Car Status Screen");
    
    // Draw the button
    vid_draw_box(BTN_OFFSET_HORIZ_OPTIONS,
 30832c4:	00802a34 	movhi	r2,168
 30832c8:	10a9e9c4 	addi	r2,r2,-22617
 30832cc:	d8800015 	stw	r2,0(sp)
 30832d0:	00800044 	movi	r2,1
 30832d4:	d8800115 	stw	r2,4(sp)
 30832d8:	e0bffe17 	ldw	r2,-8(fp)
 30832dc:	d8800215 	stw	r2,8(sp)
 30832e0:	0009883a 	mov	r4,zero
 30832e4:	01406e04 	movi	r5,440
 30832e8:	01800a04 	movi	r6,40
 30832ec:	01c00504 	movi	r7,20
 30832f0:	30869fc0 	call	30869fc <vid_draw_box>
    		BTN_HORIZ_LENGTH_OPTIONS,
    		BTN_VERT_LENGTH_OPTIONS,
    		BTN_BG_COLOR_OPTIONS,
    		1, pReader);

    vid_print_string_alpha(BTN_OFFSET_HORIZ_TEXT_OPTIONS,
 30832f4:	008081b4 	movhi	r2,518
 30832f8:	10be4d04 	addi	r2,r2,-1740
 30832fc:	d8800015 	stw	r2,0(sp)
 3083300:	e0bffe17 	ldw	r2,-8(fp)
 3083304:	d8800115 	stw	r2,4(sp)
 3083308:	00808134 	movhi	r2,516
 308330c:	10938b04 	addi	r2,r2,20012
 3083310:	d8800215 	stw	r2,8(sp)
 3083314:	01000284 	movi	r4,10
 3083318:	01407084 	movi	r5,450
 308331c:	01804034 	movhi	r6,256
 3083320:	31bfffc4 	addi	r6,r6,-1
 3083324:	01c02a34 	movhi	r7,168
 3083328:	39e9e9c4 	addi	r7,r7,-22617
 308332c:	3088f680 	call	3088f68 <vid_print_string_alpha>
    		BTN_TEXT_COLOR_OPTIONS,
    		BTN_BG_COLOR_OPTIONS,
    		tahomabold_20, pReader, "Options");
    
    const char * OPTIONS[NUM_OPTIONS];
    	OPTIONS[0] = "Battery Level";
 3083330:	00808134 	movhi	r2,516
 3083334:	1093a204 	addi	r2,r2,20104
 3083338:	e0bff915 	stw	r2,-28(fp)
    	OPTIONS[1] = "Power from Battery";
 308333c:	00808134 	movhi	r2,516
 3083340:	1093a604 	addi	r2,r2,20120
 3083344:	e0bffa15 	stw	r2,-24(fp)
    	OPTIONS[2] = "Panel Voltage";
 3083348:	00808134 	movhi	r2,516
 308334c:	1093ab04 	addi	r2,r2,20140
 3083350:	e0bffb15 	stw	r2,-20(fp)
    	OPTIONS[3] = "Charge State";
 3083354:	00808134 	movhi	r2,516
 3083358:	1093af04 	addi	r2,r2,20156
 308335c:	e0bffc15 	stw	r2,-16(fp)
    	OPTIONS[4] = "Battery Time Left";
 3083360:	00808134 	movhi	r2,516
 3083364:	1093b304 	addi	r2,r2,20172
 3083368:	e0bffd15 	stw	r2,-12(fp)
    
    // Draw the info
    int i;
    for(i = 0; i < NUM_OPTIONS; ++i)
 308336c:	e03ff415 	stw	zero,-48(fp)
 3083370:	00001906 	br	30833d8 <GUI_DeskDraw+0x1c8>
    {
        vid_print_string_alpha(LABEL_OFFSET_HORIZ,
 3083374:	e0bff417 	ldw	r2,-48(fp)
 3083378:	10800a24 	muli	r2,r2,40
 308337c:	11402584 	addi	r5,r2,150
 3083380:	e0bff417 	ldw	r2,-48(fp)
 3083384:	1085883a 	add	r2,r2,r2
 3083388:	1085883a 	add	r2,r2,r2
 308338c:	e0fff004 	addi	r3,fp,-64
 3083390:	10c5883a 	add	r2,r2,r3
 3083394:	10800904 	addi	r2,r2,36
 3083398:	10c00017 	ldw	r3,0(r2)
 308339c:	008081b4 	movhi	r2,518
 30833a0:	10be4d04 	addi	r2,r2,-1740
 30833a4:	d8800015 	stw	r2,0(sp)
 30833a8:	e0bffe17 	ldw	r2,-8(fp)
 30833ac:	d8800115 	stw	r2,4(sp)
 30833b0:	d8c00215 	stw	r3,8(sp)
 30833b4:	01007084 	movi	r4,450
 30833b8:	01802a34 	movhi	r6,168
 30833bc:	31a9e9c4 	addi	r6,r6,-22617
 30833c0:	01c011f4 	movhi	r7,71
 30833c4:	39d1d1c4 	addi	r7,r7,18247
 30833c8:	3088f680 	call	3088f68 <vid_print_string_alpha>
    	OPTIONS[3] = "Charge State";
    	OPTIONS[4] = "Battery Time Left";
    
    // Draw the info
    int i;
    for(i = 0; i < NUM_OPTIONS; ++i)
 30833cc:	e0bff417 	ldw	r2,-48(fp)
 30833d0:	10800044 	addi	r2,r2,1
 30833d4:	e0bff415 	stw	r2,-48(fp)
 30833d8:	e0bff417 	ldw	r2,-48(fp)
 30833dc:	10800150 	cmplti	r2,r2,5
 30833e0:	103fe41e 	bne	r2,zero,3083374 <GUI_DeskDraw+0x164>
        vid_print_string_alpha(LABEL_OFFSET_HORIZ,
        		LABEL_OFFSET_VERT + (i * VERT_SPACING_INFO),
        		COLOR_INFO_TEXT, BG_COLOR, tahomabold_20, pReader, OPTIONS[i]);
    }

    drawStats(pReader);
 30833e4:	e13ffe17 	ldw	r4,-8(fp)
 30833e8:	30830f40 	call	30830f4 <drawStats>

    // Set button rect dims

    RectSet(rc_button,
 30833ec:	00807304 	movi	r2,460
 30833f0:	d8800015 	stw	r2,0(sp)
 30833f4:	e13fff17 	ldw	r4,-4(fp)
 30833f8:	000b883a 	mov	r5,zero
 30833fc:	01800a04 	movi	r6,40
 3083400:	01c06e04 	movi	r7,440
 3083404:	30826ec0 	call	30826ec <RectSet>
    		BTN_OFFSET_VERT_OPTIONS,
    		BTN_OFFSET_VERT_OPTIONS + BTN_VERT_LENGTH_OPTIONS);

    // Draw the axes
    // X-AXIS
    vid_draw_line(GRAPH_BOT_HORIZ_OFFSET,
 3083408:	00800044 	movi	r2,1
 308340c:	d8800015 	stw	r2,0(sp)
 3083410:	00802a34 	movhi	r2,168
 3083414:	10a9e9c4 	addi	r2,r2,-22617
 3083418:	d8800115 	stw	r2,4(sp)
 308341c:	e0bffe17 	ldw	r2,-8(fp)
 3083420:	d8800215 	stw	r2,8(sp)
 3083424:	01000504 	movi	r4,20
 3083428:	01404b04 	movi	r5,300
 308342c:	01803704 	movi	r6,220
 3083430:	01c04b04 	movi	r7,300
 3083434:	30861d00 	call	30861d0 <vid_draw_line>
    		GRAPH_BOT_VERT_OFFSET,
    		GRAPH_BOT_HORIZ_OFFSET + GRAPH_HORIZ_LENGTH,
    		GRAPH_BOT_VERT_OFFSET, 1, AXIS_COLOR, pReader);
    // Y-AXIS
    vid_draw_line(GRAPH_BOT_HORIZ_OFFSET,
 3083438:	00800044 	movi	r2,1
 308343c:	d8800015 	stw	r2,0(sp)
 3083440:	00802a34 	movhi	r2,168
 3083444:	10a9e9c4 	addi	r2,r2,-22617
 3083448:	d8800115 	stw	r2,4(sp)
 308344c:	e0bffe17 	ldw	r2,-8(fp)
 3083450:	d8800215 	stw	r2,8(sp)
 3083454:	01000504 	movi	r4,20
 3083458:	01404b04 	movi	r5,300
 308345c:	01800504 	movi	r6,20
 3083460:	01c02584 	movi	r7,150
 3083464:	30861d00 	call	30861d0 <vid_draw_line>
    		GRAPH_BOT_VERT_OFFSET - GRAPH_VERT_LENGTH,
    		1, AXIS_COLOR, pReader);


    // Draw the graph
	int max_x = get_max(xdata, arr_lengths);
 3083468:	d1600017 	ldw	r5,-32768(gp)
 308346c:	01008134 	movhi	r4,516
 3083470:	21137604 	addi	r4,r4,19928
 3083474:	3082a1c0 	call	3082a1c <get_max>
 3083478:	e0bff315 	stw	r2,-52(fp)
	int max_y = get_max(ydata, arr_lengths);
 308347c:	d1600017 	ldw	r5,-32768(gp)
 3083480:	01008134 	movhi	r4,516
 3083484:	21137f04 	addi	r4,r4,19964
 3083488:	3082a1c0 	call	3082a1c <get_max>
 308348c:	e0bff215 	stw	r2,-56(fp)
	float scale_factor_x = get_scale_factor(GRAPH_HORIZ_LENGTH, max_x);
 3083490:	01003204 	movi	r4,200
 3083494:	e17ff317 	ldw	r5,-52(fp)
 3083498:	3082ab80 	call	3082ab8 <get_scale_factor>
 308349c:	e0bff115 	stw	r2,-60(fp)
	float scale_factor_y = get_scale_factor(GRAPH_VERT_LENGTH, max_y);
 30834a0:	01002584 	movi	r4,150
 30834a4:	e17ff217 	ldw	r5,-56(fp)
 30834a8:	3082ab80 	call	3082ab8 <get_scale_factor>
 30834ac:	e0bff015 	stw	r2,-64(fp)

	plot(GRAPH_BOT_HORIZ_OFFSET, xdata, scale_factor_x,
 30834b0:	d0e00017 	ldw	r3,-32768(gp)
 30834b4:	00808134 	movhi	r2,516
 30834b8:	10937f04 	addi	r2,r2,19964
 30834bc:	d8800015 	stw	r2,0(sp)
 30834c0:	e0bff017 	ldw	r2,-64(fp)
 30834c4:	d8800115 	stw	r2,4(sp)
 30834c8:	d8c00215 	stw	r3,8(sp)
 30834cc:	00800b34 	movhi	r2,44
 30834d0:	10993204 	addi	r2,r2,25800
 30834d4:	d8800315 	stw	r2,12(sp)
 30834d8:	e0bffe17 	ldw	r2,-8(fp)
 30834dc:	d8800415 	stw	r2,16(sp)
 30834e0:	01000504 	movi	r4,20
 30834e4:	01408134 	movhi	r5,516
 30834e8:	29537604 	addi	r5,r5,19928
 30834ec:	e1bff117 	ldw	r6,-60(fp)
 30834f0:	01c04b04 	movi	r7,300
 30834f4:	3082b0c0 	call	3082b0c <plot>
			GRAPH_BOT_VERT_OFFSET, ydata, scale_factor_y,
			arr_lengths, PLOT_COLOR, pReader);

}
 30834f8:	e037883a 	mov	sp,fp
 30834fc:	dfc00117 	ldw	ra,4(sp)
 3083500:	df000017 	ldw	fp,0(sp)
 3083504:	dec00204 	addi	sp,sp,8
 3083508:	f800283a 	ret

0308350c <IsContinuedPoint>:



bool IsContinuedPoint(POINT *ptPre, POINT *ptNew){
 308350c:	defff904 	addi	sp,sp,-28
 3083510:	df000615 	stw	fp,24(sp)
 3083514:	df000604 	addi	fp,sp,24
 3083518:	e13ffc15 	stw	r4,-16(fp)
 308351c:	e17ffd15 	stw	r5,-12(fp)
    bool bYes = TRUE;
 3083520:	00800044 	movi	r2,1
 3083524:	e0bffb15 	stw	r2,-20(fp)
    const int nMax = 50;
 3083528:	00800c84 	movi	r2,50
 308352c:	e0bffa15 	stw	r2,-24(fp)
    if (abs(ptPre->x - ptNew->x) > nMax)
 3083530:	e0bffc17 	ldw	r2,-16(fp)
 3083534:	10c00017 	ldw	r3,0(r2)
 3083538:	e0bffd17 	ldw	r2,-12(fp)
 308353c:	10800017 	ldw	r2,0(r2)
 3083540:	1885c83a 	sub	r2,r3,r2
 3083544:	e0bfff15 	stw	r2,-4(fp)
 3083548:	e0ffff17 	ldw	r3,-4(fp)
 308354c:	1804403a 	cmpge	r2,r3,zero
 3083550:	1000031e 	bne	r2,zero,3083560 <IsContinuedPoint+0x54>
 3083554:	e0bfff17 	ldw	r2,-4(fp)
 3083558:	0085c83a 	sub	r2,zero,r2
 308355c:	e0bfff15 	stw	r2,-4(fp)
 3083560:	e0bffa17 	ldw	r2,-24(fp)
 3083564:	e0ffff17 	ldw	r3,-4(fp)
 3083568:	10c0020e 	bge	r2,r3,3083574 <IsContinuedPoint+0x68>
        bYes = FALSE;
 308356c:	e03ffb15 	stw	zero,-20(fp)
 3083570:	00001006 	br	30835b4 <IsContinuedPoint+0xa8>
    else if (abs(ptPre->y - ptNew->y) > nMax)
 3083574:	e0bffc17 	ldw	r2,-16(fp)
 3083578:	10c00117 	ldw	r3,4(r2)
 308357c:	e0bffd17 	ldw	r2,-12(fp)
 3083580:	10800117 	ldw	r2,4(r2)
 3083584:	1885c83a 	sub	r2,r3,r2
 3083588:	e0bffe15 	stw	r2,-8(fp)
 308358c:	e0fffe17 	ldw	r3,-8(fp)
 3083590:	1804403a 	cmpge	r2,r3,zero
 3083594:	1000031e 	bne	r2,zero,30835a4 <IsContinuedPoint+0x98>
 3083598:	e0bffe17 	ldw	r2,-8(fp)
 308359c:	0085c83a 	sub	r2,zero,r2
 30835a0:	e0bffe15 	stw	r2,-8(fp)
 30835a4:	e0bffa17 	ldw	r2,-24(fp)
 30835a8:	e0fffe17 	ldw	r3,-8(fp)
 30835ac:	10c0010e 	bge	r2,r3,30835b4 <IsContinuedPoint+0xa8>
        bYes = FALSE;
 30835b0:	e03ffb15 	stw	zero,-20(fp)
        
    return bYes;        
 30835b4:	e0bffb17 	ldw	r2,-20(fp)
        
}
 30835b8:	e037883a 	mov	sp,fp
 30835bc:	df000017 	ldw	fp,0(sp)
 30835c0:	dec00104 	addi	sp,sp,4
 30835c4:	f800283a 	ret

030835c8 <GUI_ShowGesture>:

void GUI_ShowGesture(VIP_FRAME_READER *pReader, POINT *ptDraw, alt_u8 GestureId ){
 30835c8:	defff204 	addi	sp,sp,-56
 30835cc:	dfc00d15 	stw	ra,52(sp)
 30835d0:	df000c15 	stw	fp,48(sp)
 30835d4:	df000c04 	addi	fp,sp,48
 30835d8:	e13ffc15 	stw	r4,-16(fp)
 30835dc:	e17ffd15 	stw	r5,-12(fp)
 30835e0:	e1bffe05 	stb	r6,-8(fp)
    // show bitmap
    int nIndex = -1, x, y;
 30835e4:	00bfffc4 	movi	r2,-1
 30835e8:	e0bffb15 	stw	r2,-20(fp)
    const int BmpW = 60;
 30835ec:	00800f04 	movi	r2,60
 30835f0:	e0bff815 	stw	r2,-32(fp)
    const int BmpH = 60;
 30835f4:	00800f04 	movi	r2,60
 30835f8:	e0bff715 	stw	r2,-36(fp)
    alt_u8 *pDes, *pSrc, *pDesStart;
    
    // find gesture bitmap id
    switch(GestureId){
 30835fc:	e0bffe03 	ldbu	r2,-8(fp)
 3083600:	10bffc04 	addi	r2,r2,-16
 3083604:	e0bfff15 	stw	r2,-4(fp)
 3083608:	e0ffff17 	ldw	r3,-4(fp)
 308360c:	18801ca8 	cmpgeui	r2,r3,114
 3083610:	1000c41e 	bne	r2,zero,3083924 <GUI_ShowGesture+0x35c>
 3083614:	e13fff17 	ldw	r4,-4(fp)
 3083618:	e13fff17 	ldw	r4,-4(fp)
 308361c:	2105883a 	add	r2,r4,r4
 3083620:	1087883a 	add	r3,r2,r2
 3083624:	0080c234 	movhi	r2,776
 3083628:	108d8e04 	addi	r2,r2,13880
 308362c:	1885883a 	add	r2,r3,r2
 3083630:	10800017 	ldw	r2,0(r2)
 3083634:	1000683a 	jmp	r2
 3083638:	03083800 	call	308380 <__alt_mem_sdram-0x1cf7c80>
 308363c:	03083924 	muli	r12,zero,8420
 3083640:	03083838 	rdprs	r12,zero,8416
 3083644:	03083924 	muli	r12,zero,8420
 3083648:	03083814 	movui	r12,8416
 308364c:	03083924 	muli	r12,zero,8420
 3083650:	03083850 	cmplti	r12,zero,8417
 3083654:	03083924 	muli	r12,zero,8420
 3083658:	03083808 	cmpgei	r12,zero,8416
 308365c:	03083924 	muli	r12,zero,8420
 3083660:	03083844 	movi	r12,8417
 3083664:	03083924 	muli	r12,zero,8420
 3083668:	03083820 	cmpeqi	r12,zero,8416
 308366c:	03083924 	muli	r12,zero,8420
 3083670:	0308382c 	andhi	r12,zero,8416
 3083674:	03083924 	muli	r12,zero,8420
 3083678:	0308385c 	xori	r12,zero,8417
 308367c:	03083924 	muli	r12,zero,8420
 3083680:	03083868 	cmpgeui	r12,zero,8417
 3083684:	03083924 	muli	r12,zero,8420
 3083688:	03083924 	muli	r12,zero,8420
 308368c:	03083924 	muli	r12,zero,8420
 3083690:	03083924 	muli	r12,zero,8420
 3083694:	03083924 	muli	r12,zero,8420
 3083698:	030838f8 	rdprs	r12,zero,8419
 308369c:	03083904 	movi	r12,8420
 30836a0:	03083924 	muli	r12,zero,8420
 30836a4:	03083924 	muli	r12,zero,8420
 30836a8:	03083924 	muli	r12,zero,8420
 30836ac:	03083924 	muli	r12,zero,8420
 30836b0:	03083924 	muli	r12,zero,8420
 30836b4:	03083924 	muli	r12,zero,8420
 30836b8:	03083880 	call	308388 <__alt_mem_sdram-0x1cf7c78>
 30836bc:	03083924 	muli	r12,zero,8420
 30836c0:	030838bc 	xorhi	r12,zero,8418
 30836c4:	03083924 	muli	r12,zero,8420
 30836c8:	03083898 	cmpnei	r12,zero,8418
 30836cc:	03083924 	muli	r12,zero,8420
 30836d0:	030838d4 	movui	r12,8419
 30836d4:	03083924 	muli	r12,zero,8420
 30836d8:	0308388c 	andi	r12,zero,8418
 30836dc:	03083924 	muli	r12,zero,8420
 30836e0:	030838b0 	cmpltui	r12,zero,8418
 30836e4:	03083924 	muli	r12,zero,8420
 30836e8:	030838a4 	muli	r12,zero,8418
 30836ec:	03083924 	muli	r12,zero,8420
 30836f0:	030838c8 	cmpgei	r12,zero,8419
 30836f4:	03083924 	muli	r12,zero,8420
 30836f8:	030838e0 	cmpeqi	r12,zero,8419
 30836fc:	03083924 	muli	r12,zero,8420
 3083700:	03083924 	muli	r12,zero,8420
 3083704:	03083924 	muli	r12,zero,8420
 3083708:	03083924 	muli	r12,zero,8420
 308370c:	03083924 	muli	r12,zero,8420
 3083710:	03083924 	muli	r12,zero,8420
 3083714:	03083924 	muli	r12,zero,8420
 3083718:	03083910 	cmplti	r12,zero,8420
 308371c:	0308391c 	xori	r12,zero,8420
 3083720:	03083924 	muli	r12,zero,8420
 3083724:	03083924 	muli	r12,zero,8420
 3083728:	03083924 	muli	r12,zero,8420
 308372c:	03083924 	muli	r12,zero,8420
 3083730:	03083924 	muli	r12,zero,8420
 3083734:	03083924 	muli	r12,zero,8420
 3083738:	03083924 	muli	r12,zero,8420
 308373c:	03083924 	muli	r12,zero,8420
 3083740:	03083924 	muli	r12,zero,8420
 3083744:	03083924 	muli	r12,zero,8420
 3083748:	03083924 	muli	r12,zero,8420
 308374c:	03083924 	muli	r12,zero,8420
 3083750:	03083924 	muli	r12,zero,8420
 3083754:	03083924 	muli	r12,zero,8420
 3083758:	03083924 	muli	r12,zero,8420
 308375c:	03083924 	muli	r12,zero,8420
 3083760:	03083924 	muli	r12,zero,8420
 3083764:	03083924 	muli	r12,zero,8420
 3083768:	03083924 	muli	r12,zero,8420
 308376c:	03083924 	muli	r12,zero,8420
 3083770:	03083924 	muli	r12,zero,8420
 3083774:	03083924 	muli	r12,zero,8420
 3083778:	03083924 	muli	r12,zero,8420
 308377c:	03083924 	muli	r12,zero,8420
 3083780:	03083924 	muli	r12,zero,8420
 3083784:	03083924 	muli	r12,zero,8420
 3083788:	03083924 	muli	r12,zero,8420
 308378c:	03083924 	muli	r12,zero,8420
 3083790:	03083924 	muli	r12,zero,8420
 3083794:	03083924 	muli	r12,zero,8420
 3083798:	03083924 	muli	r12,zero,8420
 308379c:	03083924 	muli	r12,zero,8420
 30837a0:	03083924 	muli	r12,zero,8420
 30837a4:	03083924 	muli	r12,zero,8420
 30837a8:	03083924 	muli	r12,zero,8420
 30837ac:	03083924 	muli	r12,zero,8420
 30837b0:	03083924 	muli	r12,zero,8420
 30837b4:	03083924 	muli	r12,zero,8420
 30837b8:	03083924 	muli	r12,zero,8420
 30837bc:	03083924 	muli	r12,zero,8420
 30837c0:	03083924 	muli	r12,zero,8420
 30837c4:	03083924 	muli	r12,zero,8420
 30837c8:	03083924 	muli	r12,zero,8420
 30837cc:	03083924 	muli	r12,zero,8420
 30837d0:	03083924 	muli	r12,zero,8420
 30837d4:	03083924 	muli	r12,zero,8420
 30837d8:	03083924 	muli	r12,zero,8420
 30837dc:	03083924 	muli	r12,zero,8420
 30837e0:	03083924 	muli	r12,zero,8420
 30837e4:	03083924 	muli	r12,zero,8420
 30837e8:	03083924 	muli	r12,zero,8420
 30837ec:	03083924 	muli	r12,zero,8420
 30837f0:	03083924 	muli	r12,zero,8420
 30837f4:	03083924 	muli	r12,zero,8420
 30837f8:	03083874 	movhi	r12,8417
 30837fc:	030838ec 	andhi	r12,zero,8419
        case MTC_ST_NORTH:  nIndex = 0; break;
 3083800:	e03ffb15 	stw	zero,-20(fp)
 3083804:	00004706 	br	3083924 <GUI_ShowGesture+0x35c>
        case MTC_ST_SOUTH:  nIndex = 1; break;
 3083808:	00800044 	movi	r2,1
 308380c:	e0bffb15 	stw	r2,-20(fp)
 3083810:	00004406 	br	3083924 <GUI_ShowGesture+0x35c>
        case MTC_ST_EAST:   nIndex = 2; break;
 3083814:	00800084 	movi	r2,2
 3083818:	e0bffb15 	stw	r2,-20(fp)
 308381c:	00004106 	br	3083924 <GUI_ShowGesture+0x35c>
        case MTC_ST_WEST:   nIndex = 3; break;
 3083820:	008000c4 	movi	r2,3
 3083824:	e0bffb15 	stw	r2,-20(fp)
 3083828:	00003e06 	br	3083924 <GUI_ShowGesture+0x35c>
        case MTC_ST_N_WEST: nIndex = 4; break;
 308382c:	00800104 	movi	r2,4
 3083830:	e0bffb15 	stw	r2,-20(fp)
 3083834:	00003b06 	br	3083924 <GUI_ShowGesture+0x35c>
        case MTC_ST_N_EAST: nIndex = 5; break;
 3083838:	00800144 	movi	r2,5
 308383c:	e0bffb15 	stw	r2,-20(fp)
 3083840:	00003806 	br	3083924 <GUI_ShowGesture+0x35c>
        case MTC_ST_S_WEST: nIndex = 6; break;
 3083844:	00800184 	movi	r2,6
 3083848:	e0bffb15 	stw	r2,-20(fp)
 308384c:	00003506 	br	3083924 <GUI_ShowGesture+0x35c>
        case MTC_ST_S_EAST: nIndex = 7; break;
 3083850:	008001c4 	movi	r2,7
 3083854:	e0bffb15 	stw	r2,-20(fp)
 3083858:	00003206 	br	3083924 <GUI_ShowGesture+0x35c>
        
        case MTC_ST_CLICK:       nIndex = 8; break;
 308385c:	00800204 	movi	r2,8
 3083860:	e0bffb15 	stw	r2,-20(fp)
 3083864:	00002f06 	br	3083924 <GUI_ShowGesture+0x35c>
        case MTC_ST_DOUBLECLICK: nIndex = 9; break;
 3083868:	00800244 	movi	r2,9
 308386c:	e0bffb15 	stw	r2,-20(fp)
 3083870:	00002c06 	br	3083924 <GUI_ShowGesture+0x35c>
     
        case MTC_1_POINT:        nIndex = 10; break;
 3083874:	00800284 	movi	r2,10
 3083878:	e0bffb15 	stw	r2,-20(fp)
 308387c:	00002906 	br	3083924 <GUI_ShowGesture+0x35c>
     
        case MTC_MT_NORTH:        nIndex = 11; break;
 3083880:	008002c4 	movi	r2,11
 3083884:	e0bffb15 	stw	r2,-20(fp)
 3083888:	00002606 	br	3083924 <GUI_ShowGesture+0x35c>
        case MTC_MT_SOUTH:        nIndex = 12; break;
 308388c:	00800304 	movi	r2,12
 3083890:	e0bffb15 	stw	r2,-20(fp)
 3083894:	00002306 	br	3083924 <GUI_ShowGesture+0x35c>
        case MTC_MT_EAST:         nIndex = 13; break;
 3083898:	00800344 	movi	r2,13
 308389c:	e0bffb15 	stw	r2,-20(fp)
 30838a0:	00002006 	br	3083924 <GUI_ShowGesture+0x35c>
        case MTC_MT_WEST:         nIndex = 14; break;
 30838a4:	00800384 	movi	r2,14
 30838a8:	e0bffb15 	stw	r2,-20(fp)
 30838ac:	00001d06 	br	3083924 <GUI_ShowGesture+0x35c>
        case MTC_MT_S_WEST:       nIndex = 17; break;
 30838b0:	00800444 	movi	r2,17
 30838b4:	e0bffb15 	stw	r2,-20(fp)
 30838b8:	00001a06 	br	3083924 <GUI_ShowGesture+0x35c>
        case MTC_MT_N_EAST:       nIndex = 16; break;
 30838bc:	00800404 	movi	r2,16
 30838c0:	e0bffb15 	stw	r2,-20(fp)
 30838c4:	00001706 	br	3083924 <GUI_ShowGesture+0x35c>
        case MTC_MT_N_WEST:       nIndex = 15; break;
 30838c8:	008003c4 	movi	r2,15
 30838cc:	e0bffb15 	stw	r2,-20(fp)
 30838d0:	00001406 	br	3083924 <GUI_ShowGesture+0x35c>
        case MTC_MT_S_EAST:       nIndex = 18; break;
 30838d4:	00800484 	movi	r2,18
 30838d8:	e0bffb15 	stw	r2,-20(fp)
 30838dc:	00001106 	br	3083924 <GUI_ShowGesture+0x35c>
        
        case MTC_MT_CLICK:        nIndex = 19; break;
 30838e0:	008004c4 	movi	r2,19
 30838e4:	e0bffb15 	stw	r2,-20(fp)
 30838e8:	00000e06 	br	3083924 <GUI_ShowGesture+0x35c>
        case MTC_2_POINT:         nIndex = 21; break;
 30838ec:	00800544 	movi	r2,21
 30838f0:	e0bffb15 	stw	r2,-20(fp)
 30838f4:	00000b06 	br	3083924 <GUI_ShowGesture+0x35c>

        case MTC_ST_ROTATE_CW:    nIndex = 22; break;
 30838f8:	00800584 	movi	r2,22
 30838fc:	e0bffb15 	stw	r2,-20(fp)
 3083900:	00000806 	br	3083924 <GUI_ShowGesture+0x35c>
        case MTC_ST_ROTATE_CCW:   nIndex = 23; break;
 3083904:	008005c4 	movi	r2,23
 3083908:	e0bffb15 	stw	r2,-20(fp)
 308390c:	00000506 	br	3083924 <GUI_ShowGesture+0x35c>

        
        case MTC_ZOOM_IN:         nIndex = 24; break;
 3083910:	00800604 	movi	r2,24
 3083914:	e0bffb15 	stw	r2,-20(fp)
 3083918:	00000206 	br	3083924 <GUI_ShowGesture+0x35c>
        case MTC_ZOOM_OUT:        nIndex = 25; break;
 308391c:	00800644 	movi	r2,25
 3083920:	e0bffb15 	stw	r2,-20(fp)
    }
    
    if (nIndex  == -1)
 3083924:	e0bffb17 	ldw	r2,-20(fp)
 3083928:	10bfffe0 	cmpeqi	r2,r2,-1
 308392c:	1000471e 	bne	r2,zero,3083a4c <GUI_ShowGesture+0x484>
        return;
    
    pSrc = (alt_u8 *)gesture_bmp.pixel_data + nIndex * BmpW * BmpH * 3;
 3083930:	e0fffb17 	ldw	r3,-20(fp)
 3083934:	e0bff817 	ldw	r2,-32(fp)
 3083938:	1887383a 	mul	r3,r3,r2
 308393c:	e0bff717 	ldw	r2,-36(fp)
 3083940:	1887383a 	mul	r3,r3,r2
 3083944:	1805883a 	mov	r2,r3
 3083948:	1085883a 	add	r2,r2,r2
 308394c:	10c5883a 	add	r2,r2,r3
 3083950:	1007883a 	mov	r3,r2
 3083954:	00808034 	movhi	r2,512
 3083958:	10813d04 	addi	r2,r2,1268
 308395c:	1885883a 	add	r2,r3,r2
 3083960:	e0bff515 	stw	r2,-44(fp)
    
    pDesStart = (alt_u8 *)VIPFR_GetDrawFrame(pReader) + (ptDraw->y*pReader->width*pReader->bytes_per_pixel) + (ptDraw->x*pReader->bytes_per_pixel);
 3083964:	e13ffc17 	ldw	r4,-16(fp)
 3083968:	3089e340 	call	3089e34 <VIPFR_GetDrawFrame>
 308396c:	100b883a 	mov	r5,r2
 3083970:	e0bffd17 	ldw	r2,-12(fp)
 3083974:	10800017 	ldw	r2,0(r2)
 3083978:	1009883a 	mov	r4,r2
 308397c:	e0bffd17 	ldw	r2,-12(fp)
 3083980:	10c00117 	ldw	r3,4(r2)
 3083984:	e0bffc17 	ldw	r2,-16(fp)
 3083988:	10800517 	ldw	r2,20(r2)
 308398c:	1885383a 	mul	r2,r3,r2
 3083990:	2087883a 	add	r3,r4,r2
 3083994:	e0bffc17 	ldw	r2,-16(fp)
 3083998:	10800717 	ldw	r2,28(r2)
 308399c:	1885383a 	mul	r2,r3,r2
 30839a0:	2885883a 	add	r2,r5,r2
 30839a4:	e0bff415 	stw	r2,-48(fp)
    
    for(y=0;y<BmpH;y++){
 30839a8:	e03ff915 	stw	zero,-28(fp)
 30839ac:	00002406 	br	3083a40 <GUI_ShowGesture+0x478>
        pDes = pDesStart; 
 30839b0:	e0bff417 	ldw	r2,-48(fp)
 30839b4:	e0bff615 	stw	r2,-40(fp)
        for(x=0;x<BmpW;x++){
 30839b8:	e03ffa15 	stw	zero,-24(fp)
 30839bc:	00001106 	br	3083a04 <GUI_ShowGesture+0x43c>
            memcpy(pDes, pSrc, 3);
 30839c0:	e13ff617 	ldw	r4,-40(fp)
 30839c4:	e0fff517 	ldw	r3,-44(fp)
 30839c8:	18800003 	ldbu	r2,0(r3)
 30839cc:	20800005 	stb	r2,0(r4)
 30839d0:	18800043 	ldbu	r2,1(r3)
 30839d4:	20800045 	stb	r2,1(r4)
 30839d8:	18800083 	ldbu	r2,2(r3)
 30839dc:	20800085 	stb	r2,2(r4)
            pDes += 4;
 30839e0:	e0bff617 	ldw	r2,-40(fp)
 30839e4:	10800104 	addi	r2,r2,4
 30839e8:	e0bff615 	stw	r2,-40(fp)
            pSrc += 3;
 30839ec:	e0bff517 	ldw	r2,-44(fp)
 30839f0:	108000c4 	addi	r2,r2,3
 30839f4:	e0bff515 	stw	r2,-44(fp)
    
    pDesStart = (alt_u8 *)VIPFR_GetDrawFrame(pReader) + (ptDraw->y*pReader->width*pReader->bytes_per_pixel) + (ptDraw->x*pReader->bytes_per_pixel);
    
    for(y=0;y<BmpH;y++){
        pDes = pDesStart; 
        for(x=0;x<BmpW;x++){
 30839f8:	e0bffa17 	ldw	r2,-24(fp)
 30839fc:	10800044 	addi	r2,r2,1
 3083a00:	e0bffa15 	stw	r2,-24(fp)
 3083a04:	e0fffa17 	ldw	r3,-24(fp)
 3083a08:	e0bff817 	ldw	r2,-32(fp)
 3083a0c:	18bfec16 	blt	r3,r2,30839c0 <GUI_ShowGesture+0x3f8>
            memcpy(pDes, pSrc, 3);
            pDes += 4;
            pSrc += 3;
        }
        pDesStart += pReader->width*pReader->bytes_per_pixel; 
 3083a10:	e0bffc17 	ldw	r2,-16(fp)
 3083a14:	10c00517 	ldw	r3,20(r2)
 3083a18:	e0bffc17 	ldw	r2,-16(fp)
 3083a1c:	10800717 	ldw	r2,28(r2)
 3083a20:	1885383a 	mul	r2,r3,r2
 3083a24:	1007883a 	mov	r3,r2
 3083a28:	e0bff417 	ldw	r2,-48(fp)
 3083a2c:	10c5883a 	add	r2,r2,r3
 3083a30:	e0bff415 	stw	r2,-48(fp)
    
    pSrc = (alt_u8 *)gesture_bmp.pixel_data + nIndex * BmpW * BmpH * 3;
    
    pDesStart = (alt_u8 *)VIPFR_GetDrawFrame(pReader) + (ptDraw->y*pReader->width*pReader->bytes_per_pixel) + (ptDraw->x*pReader->bytes_per_pixel);
    
    for(y=0;y<BmpH;y++){
 3083a34:	e0bff917 	ldw	r2,-28(fp)
 3083a38:	10800044 	addi	r2,r2,1
 3083a3c:	e0bff915 	stw	r2,-28(fp)
 3083a40:	e0fff917 	ldw	r3,-28(fp)
 3083a44:	e0bff717 	ldw	r2,-36(fp)
 3083a48:	18bfd916 	blt	r3,r2,30839b0 <GUI_ShowGesture+0x3e8>
            pDes += 4;
            pSrc += 3;
        }
        pDesStart += pReader->width*pReader->bytes_per_pixel; 
    }
} 
 3083a4c:	e037883a 	mov	sp,fp
 3083a50:	dfc00117 	ldw	ra,4(sp)
 3083a54:	df000017 	ldw	fp,0(sp)
 3083a58:	dec00204 	addi	sp,sp,8
 3083a5c:	f800283a 	ret

03083a60 <GUI_TraceGesture>:

void GUI_TraceGesture(VIP_FRAME_READER *pReader, POINT *ptDraw, alt_u8 GestureId ){
 3083a60:	defffb04 	addi	sp,sp,-20
 3083a64:	dfc00415 	stw	ra,16(sp)
 3083a68:	df000315 	stw	fp,12(sp)
 3083a6c:	df000304 	addi	fp,sp,12
 3083a70:	e13ffd15 	stw	r4,-12(fp)
 3083a74:	e17ffe15 	stw	r5,-8(fp)
 3083a78:	e1bfff05 	stb	r6,-4(fp)
    if (GestureId == MTC_2_POINT)
 3083a7c:	e0bfff03 	ldbu	r2,-4(fp)
 3083a80:	10802060 	cmpeqi	r2,r2,129
 3083a84:	1000071e 	bne	r2,zero,3083aa4 <GUI_TraceGesture+0x44>
        return;
    if (GestureId == MTC_1_POINT)
 3083a88:	e0bfff03 	ldbu	r2,-4(fp)
 3083a8c:	10802020 	cmpeqi	r2,r2,128
 3083a90:	1000041e 	bne	r2,zero,3083aa4 <GUI_TraceGesture+0x44>
        return;
    GUI_ShowGesture(pReader, ptDraw, GestureId);
 3083a94:	e1bfff03 	ldbu	r6,-4(fp)
 3083a98:	e13ffd17 	ldw	r4,-12(fp)
 3083a9c:	e17ffe17 	ldw	r5,-8(fp)
 3083aa0:	30835c80 	call	30835c8 <GUI_ShowGesture>
}
 3083aa4:	e037883a 	mov	sp,fp
 3083aa8:	dfc00117 	ldw	ra,4(sp)
 3083aac:	df000017 	ldw	fp,0(sp)
 3083ab0:	dec00204 	addi	sp,sp,8
 3083ab4:	f800283a 	ret

03083ab8 <GUI>:
//    RECT rc;
//
//    return;
//}

void GUI(MTC_INFO *pTouch){
 3083ab8:	deffcd04 	addi	sp,sp,-204
 3083abc:	dfc03215 	stw	ra,200(sp)
 3083ac0:	df003115 	stw	fp,196(sp)
 3083ac4:	df003104 	addi	fp,sp,196
 3083ac8:	e13fff15 	stw	r4,-4(fp)
    // video
//    DESK_INFO DeskInfo;
	initSensorVars(&isHigh);
 3083acc:	d1201a04 	addi	r4,gp,-32664
 3083ad0:	3085c600 	call	3085c60 <initSensorVars>
	initializePorts(&a0, &a1, &a2);
 3083ad4:	010081b4 	movhi	r4,518
 3083ad8:	210bb004 	addi	r4,r4,11968
 3083adc:	014081b4 	movhi	r5,518
 3083ae0:	294b9604 	addi	r5,r5,11864
 3083ae4:	018081b4 	movhi	r6,518
 3083ae8:	318bad04 	addi	r6,r6,11956
 3083aec:	3085c880 	call	3085c88 <initializePorts>
	int option_selected = 0;
 3083af0:	e03fe315 	stw	zero,-116(fp)
    VIP_FRAME_READER *pReader;
    int X1, Y1, X2, Y2;
    POINT Pt1, Pt2, ptGesture;
    alt_u8 Event, TouchNum, LedMask = 0x01;
 3083af4:	00800044 	movi	r2,1
 3083af8:	e0bfe105 	stb	r2,-124(fp)
    const int nDotSize = DOT_SIZE;
 3083afc:	00800184 	movi	r2,6
 3083b00:	e0bfe015 	stw	r2,-128(fp)
    RECT ok_button;
    RECT * res_opt_buttons;
    RECT * wind_opt_buttons;
    int ColorPen0, ColorPen1, ButtonId, ButtonId2;
    bool UpdatePalette;
    int * data = (int *) DATA_START;
 3083b04:	00808034 	movhi	r2,512
 3083b08:	e0bfd815 	stw	r2,-160(fp)
    int curr_res_opt_selected = -1;
 3083b0c:	00bfffc4 	movi	r2,-1
 3083b10:	e0bfd715 	stw	r2,-164(fp)
    int curr_wind_opt_selected = -1;
 3083b14:	00bfffc4 	movi	r2,-1
 3083b18:	e0bfd615 	stw	r2,-168(fp)
#ifdef ENALBE_TOUCH_FILTER    
    POINT LastPt1, LastPt2;
    alt_u32 LastTimePt1=0,LastTimePt2=0; 
 3083b1c:	e03fd515 	stw	zero,-172(fp)
 3083b20:	e03fd415 	stw	zero,-176(fp)
 * Obtain the system clock rate in ticks/s. 
 */

static ALT_INLINE alt_u32 ALT_ALWAYS_INLINE alt_ticks_per_second (void)
{
  return _alt_tick_rate;
 3083b24:	008081b4 	movhi	r2,518
 3083b28:	108b8a04 	addi	r2,r2,11816
 3083b2c:	10800017 	ldw	r2,0(r2)
 3083b30:	1009883a 	mov	r4,r2
    const alt_u32 ContinuedTime = alt_ticks_per_second()/50;
 3083b34:	01400c84 	movi	r5,50
 3083b38:	308b9280 	call	308b928 <__udivsi3>
 3083b3c:	e0bfd315 	stw	r2,-180(fp)
    /////////////////////////////////////////////
    // frame reader
#ifdef DUAL_FRAME_BUFFER
    pReader =  VIPFR_Init(ALT_VIP_VFR_0_BASE, (void *)FR_FRAME_0, (void *)FR_FRAME_1, FRAME_WIDTH, FRAME_HEIGHT);
#else    
    pReader =  VIPFR_Init(ALT_VIP_VFR_0_BASE, (void *)FR_FRAME_1, (void *)FR_FRAME_1, FRAME_WIDTH, FRAME_HEIGHT);
 3083b40:	00807804 	movi	r2,480
 3083b44:	d8800015 	stw	r2,0(sp)
 3083b48:	0100c434 	movhi	r4,784
 3083b4c:	21082004 	addi	r4,r4,8320
 3083b50:	014085f4 	movhi	r5,535
 3083b54:	295c0004 	addi	r5,r5,28672
 3083b58:	018085f4 	movhi	r6,535
 3083b5c:	319c0004 	addi	r6,r6,28672
 3083b60:	01c0c804 	movi	r7,800
 3083b64:	3089bdc0 	call	3089bdc <VIPFR_Init>
 3083b68:	e0bfe215 	stw	r2,-120(fp)
#endif // DUAL_FRAME_BUFFER    
    VIPFR_Go(pReader, TRUE);
 3083b6c:	e13fe217 	ldw	r4,-120(fp)
 3083b70:	01400044 	movi	r5,1
 3083b74:	3089df40 	call	3089df4 <VIPFR_Go>
    
    
    // clean screen
    vid_clean_screen(pReader, BLACK_24);
 3083b78:	e13fe217 	ldw	r4,-120(fp)
 3083b7c:	000b883a 	mov	r5,zero
 3083b80:	30861780 	call	3086178 <vid_clean_screen>
    
   
    //GUI_DeskInit(pReader, &DeskInfo);
    GUI_DeskDraw(pReader, &rc_button);
 3083b84:	e17ff304 	addi	r5,fp,-52
 3083b88:	e13fe217 	ldw	r4,-120(fp)
 3083b8c:	30832100 	call	3083210 <GUI_DeskDraw>
    
    VIPFR_ActiveDrawFrame(pReader);
 3083b90:	e13fe217 	ldw	r4,-120(fp)
 3083b94:	3089e880 	call	3089e88 <VIPFR_ActiveDrawFrame>
 3083b98:	00000006 	br	3083b9c <GUI+0xe4>
//    RectInflate(&rcTouch, -nDotSize-2, -nDotSize-2);

    
    while(1){
    	// Sensor reading
    	readadc(&a0, &isHigh);
 3083b9c:	010081b4 	movhi	r4,518
 3083ba0:	210bb004 	addi	r4,r4,11968
 3083ba4:	d1601a04 	addi	r5,gp,-32664
 3083ba8:	3085d140 	call	3085d14 <readadc>
    	readadc(&a1, &isHigh);
 3083bac:	010081b4 	movhi	r4,518
 3083bb0:	210b9604 	addi	r4,r4,11864
 3083bb4:	d1601a04 	addi	r5,gp,-32664
 3083bb8:	3085d140 	call	3085d14 <readadc>
    	readadc(&a2, &isHigh);
 3083bbc:	010081b4 	movhi	r4,518
 3083bc0:	210bad04 	addi	r4,r4,11956
 3083bc4:	d1601a04 	addi	r5,gp,-32664
 3083bc8:	3085d140 	call	3085d14 <readadc>
    	vin(&a0);
 3083bcc:	010081b4 	movhi	r4,518
 3083bd0:	210bb004 	addi	r4,r4,11968
 3083bd4:	3085e800 	call	3085e80 <vin>
    	usleep(1000000);
 3083bd8:	010003f4 	movhi	r4,15
 3083bdc:	21109004 	addi	r4,r4,16960
 3083be0:	30963040 	call	3096304 <usleep>

    	// Redraw info
    	drawStats(pReader);
 3083be4:	e13fe217 	ldw	r4,-120(fp)
 3083be8:	30830f40 	call	30830f4 <drawStats>


		// touch
		if (MTC_GetStatus(pTouch, &Event, &TouchNum, &X1, &Y1, &X2, &Y2)){
 3083bec:	e17fee04 	addi	r5,fp,-72
 3083bf0:	e1bfee44 	addi	r6,fp,-71
 3083bf4:	e1ffe404 	addi	r7,fp,-112
 3083bf8:	e0bfe504 	addi	r2,fp,-108
 3083bfc:	d8800015 	stw	r2,0(sp)
 3083c00:	e0bfe604 	addi	r2,fp,-104
 3083c04:	d8800115 	stw	r2,4(sp)
 3083c08:	e0bfe704 	addi	r2,fp,-100
 3083c0c:	d8800215 	stw	r2,8(sp)
 3083c10:	e13fff17 	ldw	r4,-4(fp)
 3083c14:	3084afc0 	call	3084afc <MTC_GetStatus>
 3083c18:	1005003a 	cmpeq	r2,r2,zero
 3083c1c:	103fdf1e 	bne	r2,zero,3083b9c <GUI+0xe4>
			PtSet(&Pt1, X1, Y1);
 3083c20:	e17fe417 	ldw	r5,-112(fp)
 3083c24:	e1bfe517 	ldw	r6,-108(fp)
 3083c28:	e13fe804 	addi	r4,fp,-96
 3083c2c:	30826ac0 	call	30826ac <PtSet>
			if(!option_selected) {
 3083c30:	e0bfe317 	ldw	r2,-116(fp)
 3083c34:	1004c03a 	cmpne	r2,r2,zero
 3083c38:	1000141e 	bne	r2,zero,3083c8c <GUI+0x1d4>
				if(TouchNum == 1 && GUI_CheckButton(&Pt1, &rc_button)) {
 3083c3c:	e0bfee43 	ldbu	r2,-71(fp)
 3083c40:	10803fcc 	andi	r2,r2,255
 3083c44:	10800058 	cmpnei	r2,r2,1
 3083c48:	103fd41e 	bne	r2,zero,3083b9c <GUI+0xe4>
 3083c4c:	e13fe804 	addi	r4,fp,-96
 3083c50:	e17ff304 	addi	r5,fp,-52
 3083c54:	30830a00 	call	30830a0 <GUI_CheckButton>
 3083c58:	1005003a 	cmpeq	r2,r2,zero
 3083c5c:	103fcf1e 	bne	r2,zero,3083b9c <GUI+0xe4>
					printf("Options.");
 3083c60:	01008134 	movhi	r4,516
 3083c64:	2113b804 	addi	r4,r4,20192
 3083c68:	308dedc0 	call	308dedc <printf>
					option_selected = 1;
 3083c6c:	00800044 	movi	r2,1
 3083c70:	e0bfe315 	stw	r2,-116(fp)
					draw_options(pReader, &ok_button, res_opt_buttons, wind_opt_buttons);
 3083c74:	e17ff704 	addi	r5,fp,-36
 3083c78:	e13fe217 	ldw	r4,-120(fp)
 3083c7c:	e1bfdf17 	ldw	r6,-132(fp)
 3083c80:	e1ffde17 	ldw	r7,-136(fp)
 3083c84:	3082cd80 	call	3082cd8 <draw_options>
 3083c88:	003fc406 	br	3083b9c <GUI+0xe4>
			}
			else {

				// Check and set the resolution and window options
				int i;
				for(i = 0; i < res_opts_count; ++i) {
 3083c8c:	e03fd215 	stw	zero,-184(fp)
 3083c90:	00001206 	br	3083cdc <GUI+0x224>
					if(TouchNum == 1 && GUI_CheckButton(&Pt1, &(res_opt_buttons[i]))){
 3083c94:	e0bfee43 	ldbu	r2,-71(fp)
 3083c98:	10803fcc 	andi	r2,r2,255
 3083c9c:	10800058 	cmpnei	r2,r2,1
 3083ca0:	10000b1e 	bne	r2,zero,3083cd0 <GUI+0x218>
 3083ca4:	e0bfd217 	ldw	r2,-184(fp)
 3083ca8:	1004913a 	slli	r2,r2,4
 3083cac:	1007883a 	mov	r3,r2
 3083cb0:	e0bfdf17 	ldw	r2,-132(fp)
 3083cb4:	188b883a 	add	r5,r3,r2
 3083cb8:	e13fe804 	addi	r4,fp,-96
 3083cbc:	30830a00 	call	30830a0 <GUI_CheckButton>
 3083cc0:	1005003a 	cmpeq	r2,r2,zero
 3083cc4:	1000021e 	bne	r2,zero,3083cd0 <GUI+0x218>
						curr_res_opt_selected = i;
 3083cc8:	e0bfd217 	ldw	r2,-184(fp)
 3083ccc:	e0bfd715 	stw	r2,-164(fp)
			}
			else {

				// Check and set the resolution and window options
				int i;
				for(i = 0; i < res_opts_count; ++i) {
 3083cd0:	e0bfd217 	ldw	r2,-184(fp)
 3083cd4:	10800044 	addi	r2,r2,1
 3083cd8:	e0bfd215 	stw	r2,-184(fp)
 3083cdc:	d0e00117 	ldw	r3,-32764(gp)
 3083ce0:	e0bfd217 	ldw	r2,-184(fp)
 3083ce4:	10ffeb16 	blt	r2,r3,3083c94 <GUI+0x1dc>
					if(TouchNum == 1 && GUI_CheckButton(&Pt1, &(res_opt_buttons[i]))){
						curr_res_opt_selected = i;
					}
				}

				for(i = 0; i < wind_opts_count; ++i) {
 3083ce8:	e03fd215 	stw	zero,-184(fp)
 3083cec:	00001206 	br	3083d38 <GUI+0x280>
					if(TouchNum == 1 && GUI_CheckButton(&Pt1, &(wind_opt_buttons[i]))){
 3083cf0:	e0bfee43 	ldbu	r2,-71(fp)
 3083cf4:	10803fcc 	andi	r2,r2,255
 3083cf8:	10800058 	cmpnei	r2,r2,1
 3083cfc:	10000b1e 	bne	r2,zero,3083d2c <GUI+0x274>
 3083d00:	e0bfd217 	ldw	r2,-184(fp)
 3083d04:	1004913a 	slli	r2,r2,4
 3083d08:	1007883a 	mov	r3,r2
 3083d0c:	e0bfde17 	ldw	r2,-136(fp)
 3083d10:	188b883a 	add	r5,r3,r2
 3083d14:	e13fe804 	addi	r4,fp,-96
 3083d18:	30830a00 	call	30830a0 <GUI_CheckButton>
 3083d1c:	1005003a 	cmpeq	r2,r2,zero
 3083d20:	1000021e 	bne	r2,zero,3083d2c <GUI+0x274>
						curr_wind_opt_selected = i;
 3083d24:	e0bfd217 	ldw	r2,-184(fp)
 3083d28:	e0bfd615 	stw	r2,-168(fp)
					if(TouchNum == 1 && GUI_CheckButton(&Pt1, &(res_opt_buttons[i]))){
						curr_res_opt_selected = i;
					}
				}

				for(i = 0; i < wind_opts_count; ++i) {
 3083d2c:	e0bfd217 	ldw	r2,-184(fp)
 3083d30:	10800044 	addi	r2,r2,1
 3083d34:	e0bfd215 	stw	r2,-184(fp)
 3083d38:	d0e00217 	ldw	r3,-32760(gp)
 3083d3c:	e0bfd217 	ldw	r2,-184(fp)
 3083d40:	10ffeb16 	blt	r2,r3,3083cf0 <GUI+0x238>
					}
				}


				// Check for the OK button
				if(TouchNum == 1 && GUI_CheckButton(&Pt1, &ok_button)) {
 3083d44:	e0bfee43 	ldbu	r2,-71(fp)
 3083d48:	10803fcc 	andi	r2,r2,255
 3083d4c:	10800058 	cmpnei	r2,r2,1
 3083d50:	103f921e 	bne	r2,zero,3083b9c <GUI+0xe4>
 3083d54:	e13fe804 	addi	r4,fp,-96
 3083d58:	e17ff704 	addi	r5,fp,-36
 3083d5c:	30830a00 	call	30830a0 <GUI_CheckButton>
 3083d60:	1005003a 	cmpeq	r2,r2,zero
 3083d64:	103f8d1e 	bne	r2,zero,3083b9c <GUI+0xe4>
					printf("OK.");
 3083d68:	01008134 	movhi	r4,516
 3083d6c:	2113bb04 	addi	r4,r4,20204
 3083d70:	308dedc0 	call	308dedc <printf>
					option_selected = 0;
 3083d74:	e03fe315 	stw	zero,-116(fp)
					printf("RES SELECTED: %d, WIND SELECTED: %d.",
 3083d78:	01008134 	movhi	r4,516
 3083d7c:	2113bc04 	addi	r4,r4,20208
 3083d80:	e17fd717 	ldw	r5,-164(fp)
 3083d84:	e1bfd617 	ldw	r6,-168(fp)
 3083d88:	308dedc0 	call	308dedc <printf>
							curr_res_opt_selected, curr_wind_opt_selected);
					// Change the color.
					// Reset selected options?
					GUI_DeskDraw(pReader, &rc_button);
 3083d8c:	e17ff304 	addi	r5,fp,-52
 3083d90:	e13fe217 	ldw	r4,-120(fp)
 3083d94:	30832100 	call	3083210 <GUI_DeskDraw>
				}
			}
    	}
    }
 3083d98:	003f8006 	br	3083b9c <GUI+0xe4>

03083d9c <ShowInfo>:
#define FRAME_HEIGHT 480

#define FR_FRAME_0  (SDRAM_BASE)
#define FR_FRAME_1  (SDRAM_BASE + FRAME_WIDTH*FRAME_HEIGHT*4)

void ShowInfo(VIP_FRAME_READER *pReader, char *pText){
 3083d9c:	defff904 	addi	sp,sp,-28
 3083da0:	dfc00615 	stw	ra,24(sp)
 3083da4:	df000515 	stw	fp,20(sp)
 3083da8:	df000504 	addi	fp,sp,20
 3083dac:	e13ffe15 	stw	r4,-8(fp)
 3083db0:	e17fff15 	stw	r5,-4(fp)
    vid_print_string_alpha(1, 1, WHITE_24, BLACK_24, tahomabold_20, pReader, pText);    
 3083db4:	008081b4 	movhi	r2,518
 3083db8:	10be4d04 	addi	r2,r2,-1740
 3083dbc:	d8800015 	stw	r2,0(sp)
 3083dc0:	e0bffe17 	ldw	r2,-8(fp)
 3083dc4:	d8800115 	stw	r2,4(sp)
 3083dc8:	e0bfff17 	ldw	r2,-4(fp)
 3083dcc:	d8800215 	stw	r2,8(sp)
 3083dd0:	01000044 	movi	r4,1
 3083dd4:	01400044 	movi	r5,1
 3083dd8:	01804034 	movhi	r6,256
 3083ddc:	31bfffc4 	addi	r6,r6,-1
 3083de0:	000f883a 	mov	r7,zero
 3083de4:	3088f680 	call	3088f68 <vid_print_string_alpha>
}
 3083de8:	e037883a 	mov	sp,fp
 3083dec:	dfc00117 	ldw	ra,4(sp)
 3083df0:	df000017 	ldw	fp,0(sp)
 3083df4:	dec00204 	addi	sp,sp,8
 3083df8:	f800283a 	ret

03083dfc <VPG_XLine>:

void VPG_XLine(VIP_FRAME_READER *pReader){
